
output/out:     file format elf32-littlearm


Disassembly of section .text:

01000000 <Reset_Handler-0x200>:
	...

01000200 <Reset_Handler>:
 1000200:	4853      	ldr	r0, [pc, #332]	; (1000350 <BT_IRQHandler+0x2>)
 1000202:	4700      	bx	r0

01000204 <hard_fault_handler>:
 1000204:	4853      	ldr	r0, [pc, #332]	; (1000354 <BT_IRQHandler+0x6>)
 1000206:	4700      	bx	r0
 1000208:	46c0      	nop			; (mov r8, r8)

0100020a <svc_handler>:
 100020a:	4853      	ldr	r0, [pc, #332]	; (1000358 <BT_IRQHandler+0xa>)
 100020c:	4700      	bx	r0
 100020e:	46c0      	nop			; (mov r8, r8)

01000210 <pendsv_handler>:
 1000210:	4852      	ldr	r0, [pc, #328]	; (100035c <BT_IRQHandler+0xe>)
 1000212:	4700      	bx	r0
 1000214:	46c0      	nop			; (mov r8, r8)

01000216 <systick>:
 1000216:	4852      	ldr	r0, [pc, #328]	; (1000360 <BT_IRQHandler+0x12>)
 1000218:	4700      	bx	r0
 100021a:	46c0      	nop			; (mov r8, r8)

0100021c <irq0>:
 100021c:	2000      	movs	r0, #0
 100021e:	e03d      	b.n	100029c <isr>

01000220 <irq1>:
 1000220:	2004      	movs	r0, #4
 1000222:	e03b      	b.n	100029c <isr>

01000224 <irq2>:
 1000224:	2008      	movs	r0, #8
 1000226:	e039      	b.n	100029c <isr>

01000228 <irq3>:
 1000228:	200c      	movs	r0, #12
 100022a:	e037      	b.n	100029c <isr>

0100022c <irq4>:
 100022c:	2010      	movs	r0, #16
 100022e:	e035      	b.n	100029c <isr>

01000230 <irq5>:
 1000230:	2014      	movs	r0, #20
 1000232:	e033      	b.n	100029c <isr>

01000234 <irq6>:
 1000234:	2018      	movs	r0, #24
 1000236:	e031      	b.n	100029c <isr>

01000238 <irq7>:
 1000238:	201c      	movs	r0, #28
 100023a:	e02f      	b.n	100029c <isr>

0100023c <irq8>:
 100023c:	2020      	movs	r0, #32
 100023e:	e02d      	b.n	100029c <isr>

01000240 <irq9>:
 1000240:	2024      	movs	r0, #36	; 0x24
 1000242:	e02b      	b.n	100029c <isr>

01000244 <irq10>:
 1000244:	2028      	movs	r0, #40	; 0x28
 1000246:	e029      	b.n	100029c <isr>

01000248 <irq11>:
 1000248:	202c      	movs	r0, #44	; 0x2c
 100024a:	e027      	b.n	100029c <isr>

0100024c <irq12>:
 100024c:	2030      	movs	r0, #48	; 0x30
 100024e:	e025      	b.n	100029c <isr>

01000250 <irq13>:
 1000250:	2034      	movs	r0, #52	; 0x34
 1000252:	e023      	b.n	100029c <isr>

01000254 <irq14>:
 1000254:	2038      	movs	r0, #56	; 0x38
 1000256:	e021      	b.n	100029c <isr>

01000258 <irq15>:
 1000258:	203c      	movs	r0, #60	; 0x3c
 100025a:	e01f      	b.n	100029c <isr>

0100025c <irq16>:
 100025c:	2040      	movs	r0, #64	; 0x40
 100025e:	e01d      	b.n	100029c <isr>

01000260 <irq17>:
 1000260:	2044      	movs	r0, #68	; 0x44
 1000262:	e01b      	b.n	100029c <isr>

01000264 <irq18>:
 1000264:	2048      	movs	r0, #72	; 0x48
 1000266:	e019      	b.n	100029c <isr>

01000268 <irq19>:
 1000268:	204c      	movs	r0, #76	; 0x4c
 100026a:	e017      	b.n	100029c <isr>

0100026c <irq20>:
 100026c:	2050      	movs	r0, #80	; 0x50
 100026e:	e015      	b.n	100029c <isr>

01000270 <irq21>:
 1000270:	2054      	movs	r0, #84	; 0x54
 1000272:	e013      	b.n	100029c <isr>

01000274 <irq22>:
 1000274:	2058      	movs	r0, #88	; 0x58
 1000276:	e011      	b.n	100029c <isr>

01000278 <irq23>:
 1000278:	205c      	movs	r0, #92	; 0x5c
 100027a:	e00f      	b.n	100029c <isr>

0100027c <irq24>:
 100027c:	2060      	movs	r0, #96	; 0x60
 100027e:	e00d      	b.n	100029c <isr>

01000280 <irq25>:
 1000280:	2064      	movs	r0, #100	; 0x64
 1000282:	e00b      	b.n	100029c <isr>

01000284 <irq26>:
 1000284:	2068      	movs	r0, #104	; 0x68
 1000286:	e009      	b.n	100029c <isr>

01000288 <irq27>:
 1000288:	206c      	movs	r0, #108	; 0x6c
 100028a:	e007      	b.n	100029c <isr>

0100028c <irq28>:
 100028c:	2070      	movs	r0, #112	; 0x70
 100028e:	e005      	b.n	100029c <isr>

01000290 <irq29>:
 1000290:	2074      	movs	r0, #116	; 0x74
 1000292:	e003      	b.n	100029c <isr>

01000294 <irq30>:
 1000294:	2078      	movs	r0, #120	; 0x78
 1000296:	e001      	b.n	100029c <isr>

01000298 <irq31>:
 1000298:	207c      	movs	r0, #124	; 0x7c
 100029a:	e7ff      	b.n	100029c <isr>

0100029c <isr>:
 100029c:	4931      	ldr	r1, [pc, #196]	; (1000364 <BT_IRQHandler+0x16>)
 100029e:	5840      	ldr	r0, [r0, r1]
 10002a0:	4700      	bx	r0
 10002a2:	46c0      	nop			; (mov r8, r8)
 10002a4:	46c0      	nop			; (mov r8, r8)
 10002a6:	46c0      	nop			; (mov r8, r8)
 10002a8:	46c0      	nop			; (mov r8, r8)
 10002aa:	46c0      	nop			; (mov r8, r8)
 10002ac:	46c0      	nop			; (mov r8, r8)
 10002ae:	46c0      	nop			; (mov r8, r8)

010002b0 <isr_table>:
 10002b0:	010039e1 	.word	0x010039e1
 10002b4:	0100034f 	.word	0x0100034f
 10002b8:	0100034f 	.word	0x0100034f
 10002bc:	0100034f 	.word	0x0100034f
 10002c0:	0100034f 	.word	0x0100034f
 10002c4:	0100034f 	.word	0x0100034f
 10002c8:	0100034f 	.word	0x0100034f
 10002cc:	0100034f 	.word	0x0100034f
 10002d0:	0100034f 	.word	0x0100034f
 10002d4:	0100034f 	.word	0x0100034f
 10002d8:	0100034f 	.word	0x0100034f
 10002dc:	0100034f 	.word	0x0100034f
 10002e0:	0100034f 	.word	0x0100034f
 10002e4:	0100034f 	.word	0x0100034f
 10002e8:	0100034f 	.word	0x0100034f
 10002ec:	0100034f 	.word	0x0100034f
 10002f0:	0100034f 	.word	0x0100034f
 10002f4:	0100034f 	.word	0x0100034f
 10002f8:	0100034f 	.word	0x0100034f
 10002fc:	0100034f 	.word	0x0100034f
 1000300:	0100034f 	.word	0x0100034f
 1000304:	0100034f 	.word	0x0100034f
 1000308:	0100034f 	.word	0x0100034f
 100030c:	0100034f 	.word	0x0100034f
 1000310:	0100034f 	.word	0x0100034f
 1000314:	0100034f 	.word	0x0100034f
 1000318:	0100034f 	.word	0x0100034f

0100031c <hardware_init>:
 100031c:	4912      	ldr	r1, [pc, #72]	; (1000368 <BT_IRQHandler+0x1a>)
 100031e:	4a13      	ldr	r2, [pc, #76]	; (100036c <BT_IRQHandler+0x1e>)
 1000320:	4b13      	ldr	r3, [pc, #76]	; (1000370 <BT_IRQHandler+0x22>)
 1000322:	1a9b      	subs	r3, r3, r2
 1000324:	dd03      	ble.n	100032e <hardware_init+0x12>
 1000326:	3b04      	subs	r3, #4
 1000328:	58c8      	ldr	r0, [r1, r3]
 100032a:	50d0      	str	r0, [r2, r3]
 100032c:	dcfb      	bgt.n	1000326 <hardware_init+0xa>
 100032e:	4911      	ldr	r1, [pc, #68]	; (1000374 <BT_IRQHandler+0x26>)
 1000330:	4a11      	ldr	r2, [pc, #68]	; (1000378 <BT_IRQHandler+0x2a>)
 1000332:	2000      	movs	r0, #0
 1000334:	1a52      	subs	r2, r2, r1
 1000336:	dd02      	ble.n	100033e <hardware_init+0x22>
 1000338:	3a04      	subs	r2, #4
 100033a:	5088      	str	r0, [r1, r2]
 100033c:	dcfc      	bgt.n	1000338 <hardware_init+0x1c>
 100033e:	480f      	ldr	r0, [pc, #60]	; (100037c <BT_IRQHandler+0x2e>)
 1000340:	4b0f      	ldr	r3, [pc, #60]	; (1000380 <BT_IRQHandler+0x32>)
 1000342:	f003 fd27 	bl	1003d94 <main>

01000346 <delay>:
 1000346:	3801      	subs	r0, #1
 1000348:	d1fd      	bne.n	1000346 <delay>
 100034a:	46c0      	nop			; (mov r8, r8)
 100034c:	4770      	bx	lr

0100034e <BT_IRQHandler>:
 100034e:	e7fe      	b.n	100034e <BT_IRQHandler>
 1000350:	0100031d 	.word	0x0100031d
 1000354:	0100034f 	.word	0x0100034f
 1000358:	0100034f 	.word	0x0100034f
 100035c:	0100034f 	.word	0x0100034f
 1000360:	0100034f 	.word	0x0100034f
 1000364:	010002b0 	.word	0x010002b0
 1000368:	0100585c 	.word	0x0100585c
 100036c:	00020000 	.word	0x00020000
 1000370:	00020144 	.word	0x00020144
 1000374:	00020144 	.word	0x00020144
 1000378:	00021bf8 	.word	0x00021bf8
 100037c:	00012345 	.word	0x00012345
 1000380:	00001111 	.word	0x00001111
 1000384:	00002041 	.word	0x00002041
 1000388:	61656100 	.word	0x61656100
 100038c:	01006962 	.word	0x01006962
 1000390:	00000016 	.word	0x00000016
 1000394:	726f4305 	.word	0x726f4305
 1000398:	2d786574 	.word	0x2d786574
 100039c:	0600304d 	.word	0x0600304d
 10003a0:	094d070c 	.word	0x094d070c
 10003a4:	0001      	.short	0x0001

010003a6 <printfsend>:
#endif

void printfsend(UART_TypeDef UARTx, uint8_t *buf, int len)
{
    uint8_t printbuf[256];
    for (int i = 0; i < len; i++)
 10003a6:	2300      	movs	r3, #0
{
 10003a8:	b530      	push	{r4, r5, lr}
 10003aa:	b0c1      	sub	sp, #260	; 0x104
    for (int i = 0; i < len; i++)
 10003ac:	4293      	cmp	r3, r2
 10003ae:	db04      	blt.n	10003ba <printfsend+0x14>
    else
    {
        UART_SendBuf(UART0, printbuf, len);
    }
#else
    UART_SendBuf(UARTx, printbuf, len);
 10003b0:	4669      	mov	r1, sp
 10003b2:	f001 fb85 	bl	1001ac0 <UART_SendBuf>
#endif
}
 10003b6:	b041      	add	sp, #260	; 0x104
 10003b8:	bd30      	pop	{r4, r5, pc}
        printbuf[i] = buf[i];
 10003ba:	466d      	mov	r5, sp
 10003bc:	5ccc      	ldrb	r4, [r1, r3]
 10003be:	54ec      	strb	r4, [r5, r3]
    for (int i = 0; i < len; i++)
 10003c0:	3301      	adds	r3, #1
 10003c2:	e7f3      	b.n	10003ac <printfsend+0x6>

010003c4 <MyPrintf>:

void MyPrintf(char *format, ...)
{
 10003c4:	b40f      	push	{r0, r1, r2, r3}
 10003c6:	b5f0      	push	{r4, r5, r6, r7, lr}
 10003c8:	b08d      	sub	sp, #52	; 0x34
 10003ca:	ab12      	add	r3, sp, #72	; 0x48
 10003cc:	cb04      	ldmia	r3!, {r2}
 10003ce:	9202      	str	r2, [sp, #8]
    uint32_t ulIdx, ulValue, ulPos, ulCount, ulBase, ulNeg;
    int8_t *pcStr, pcBuf[16], cFill;
    char HexFormat;
    va_list vaArgP;

    va_start(vaArgP, format);
 10003d0:	9307      	str	r3, [sp, #28]

    while (*format)
 10003d2:	9b02      	ldr	r3, [sp, #8]
 10003d4:	781b      	ldrb	r3, [r3, #0]
 10003d6:	2b00      	cmp	r3, #0
 10003d8:	d100      	bne.n	10003dc <MyPrintf+0x18>
 10003da:	e0de      	b.n	100059a <MyPrintf+0x1d6>
 10003dc:	9b02      	ldr	r3, [sp, #8]
 10003de:	9a02      	ldr	r2, [sp, #8]
    {
        // Find the first non-% character, or the end of the string.
        for (ulIdx = 0; (format[ulIdx] != '%') && (format[ulIdx] != '\0'); ulIdx++)
 10003e0:	7819      	ldrb	r1, [r3, #0]
 10003e2:	1a9a      	subs	r2, r3, r2
 10003e4:	001c      	movs	r4, r3
 10003e6:	2925      	cmp	r1, #37	; 0x25
 10003e8:	d002      	beq.n	10003f0 <MyPrintf+0x2c>
 10003ea:	3301      	adds	r3, #1
 10003ec:	2900      	cmp	r1, #0
 10003ee:	d1f6      	bne.n	10003de <MyPrintf+0x1a>
        {}

        // Write this portion of the string.
        if (ulIdx > 0)
 10003f0:	2a00      	cmp	r2, #0
 10003f2:	d003      	beq.n	10003fc <MyPrintf+0x38>
        {
//				printfsend(UART0,format, ulIdx);
            printfsend(UART0, (uint8_t *)format, ulIdx);
 10003f4:	9902      	ldr	r1, [sp, #8]
 10003f6:	2000      	movs	r0, #0
 10003f8:	f7ff ffd5 	bl	10003a6 <printfsend>
        }

        format += ulIdx;

        if (*format == '%')
 10003fc:	7823      	ldrb	r3, [r4, #0]
 10003fe:	9402      	str	r4, [sp, #8]
 1000400:	2b25      	cmp	r3, #37	; 0x25
 1000402:	d1e6      	bne.n	10003d2 <MyPrintf+0xe>
        {
            format++;
 1000404:	1c61      	adds	r1, r4, #1
                if ((format[-1] == '0') && (ulCount == 0))
                {
                    cFill = '0';
                }

                ulCount *= 10;
 1000406:	220a      	movs	r2, #10
            ulCount = 0;
 1000408:	2400      	movs	r4, #0
            cFill = ' ';
 100040a:	3b05      	subs	r3, #5
 100040c:	9303      	str	r3, [sp, #12]
            switch (*format++)
 100040e:	1c4b      	adds	r3, r1, #1
 1000410:	9302      	str	r3, [sp, #8]
 1000412:	780b      	ldrb	r3, [r1, #0]
 1000414:	2b63      	cmp	r3, #99	; 0x63
 1000416:	d036      	beq.n	1000486 <MyPrintf+0xc2>
 1000418:	d814      	bhi.n	1000444 <MyPrintf+0x80>
 100041a:	2b39      	cmp	r3, #57	; 0x39
 100041c:	d807      	bhi.n	100042e <MyPrintf+0x6a>
 100041e:	2b30      	cmp	r3, #48	; 0x30
 1000420:	d226      	bcs.n	1000470 <MyPrintf+0xac>
            }

            case '%':
            {
//					printfsend(UART0, format - 1, 1);
                printfsend(UART0, (uint8_t *)format - 1, 1);
 1000422:	2201      	movs	r2, #1
            switch (*format++)
 1000424:	2b25      	cmp	r3, #37	; 0x25
 1000426:	d035      	beq.n	1000494 <MyPrintf+0xd0>
            }

            default:
            {
//					printfsend(UART0, "ERROR", 5);
                printfsend(UART0, (uint8_t *)"ERROR", 5);
 1000428:	2205      	movs	r2, #5
 100042a:	495e      	ldr	r1, [pc, #376]	; (10005a4 <MyPrintf+0x1e0>)
 100042c:	e032      	b.n	1000494 <MyPrintf+0xd0>
            switch (*format++)
 100042e:	2b58      	cmp	r3, #88	; 0x58
 1000430:	d1fa      	bne.n	1000428 <MyPrintf+0x64>
                ulValue = va_arg(vaArgP, unsigned long);
 1000432:	9a07      	ldr	r2, [sp, #28]
                HexFormat = 'X';
 1000434:	9304      	str	r3, [sp, #16]
                ulValue = va_arg(vaArgP, unsigned long);
 1000436:	1d11      	adds	r1, r2, #4
 1000438:	6812      	ldr	r2, [r2, #0]
 100043a:	9107      	str	r1, [sp, #28]
 100043c:	9206      	str	r2, [sp, #24]
                ulNeg = 0;
 100043e:	2700      	movs	r7, #0
                ulBase = 16;
 1000440:	2310      	movs	r3, #16
 1000442:	e038      	b.n	10004b6 <MyPrintf+0xf2>
            switch (*format++)
 1000444:	2b73      	cmp	r3, #115	; 0x73
 1000446:	d06e      	beq.n	1000526 <MyPrintf+0x162>
 1000448:	d80d      	bhi.n	1000466 <MyPrintf+0xa2>
 100044a:	2b64      	cmp	r3, #100	; 0x64
 100044c:	d026      	beq.n	100049c <MyPrintf+0xd8>
 100044e:	2b70      	cmp	r3, #112	; 0x70
 1000450:	d1ea      	bne.n	1000428 <MyPrintf+0x64>
                ulValue = va_arg(vaArgP, unsigned long);
 1000452:	9b07      	ldr	r3, [sp, #28]
                ulNeg = 0;
 1000454:	2700      	movs	r7, #0
                ulValue = va_arg(vaArgP, unsigned long);
 1000456:	1d1a      	adds	r2, r3, #4
 1000458:	681b      	ldr	r3, [r3, #0]
 100045a:	9207      	str	r2, [sp, #28]
 100045c:	9306      	str	r3, [sp, #24]
                HexFormat = 'x';
 100045e:	2378      	movs	r3, #120	; 0x78
 1000460:	9304      	str	r3, [sp, #16]
                ulBase = 16;
 1000462:	3b68      	subs	r3, #104	; 0x68
 1000464:	e027      	b.n	10004b6 <MyPrintf+0xf2>
            switch (*format++)
 1000466:	2b75      	cmp	r3, #117	; 0x75
 1000468:	d079      	beq.n	100055e <MyPrintf+0x19a>
 100046a:	2b78      	cmp	r3, #120	; 0x78
 100046c:	d0f1      	beq.n	1000452 <MyPrintf+0x8e>
 100046e:	e7db      	b.n	1000428 <MyPrintf+0x64>
                if ((format[-1] == '0') && (ulCount == 0))
 1000470:	2b30      	cmp	r3, #48	; 0x30
 1000472:	d103      	bne.n	100047c <MyPrintf+0xb8>
 1000474:	2c00      	cmp	r4, #0
 1000476:	d101      	bne.n	100047c <MyPrintf+0xb8>
                    cFill = '0';
 1000478:	2130      	movs	r1, #48	; 0x30
 100047a:	9103      	str	r1, [sp, #12]
                ulCount *= 10;
 100047c:	4354      	muls	r4, r2
 100047e:	3c30      	subs	r4, #48	; 0x30
                ulCount += format[-1] - '0';
 1000480:	191c      	adds	r4, r3, r4
            switch (*format++)
 1000482:	9902      	ldr	r1, [sp, #8]
                goto again;
 1000484:	e7c3      	b.n	100040e <MyPrintf+0x4a>
                ulValue = va_arg(vaArgP, unsigned long);
 1000486:	9b07      	ldr	r3, [sp, #28]
                printfsend(UART0, (uint8_t *)&ulValue, 1);
 1000488:	a906      	add	r1, sp, #24
                ulValue = va_arg(vaArgP, unsigned long);
 100048a:	1d1a      	adds	r2, r3, #4
 100048c:	9207      	str	r2, [sp, #28]
                printfsend(UART0, (uint8_t *)&ulValue, 1);
 100048e:	2201      	movs	r2, #1
                ulValue = va_arg(vaArgP, unsigned long);
 1000490:	681b      	ldr	r3, [r3, #0]
 1000492:	9306      	str	r3, [sp, #24]
                printfsend(UART0, (uint8_t *)"ERROR", 5);
 1000494:	2000      	movs	r0, #0
 1000496:	f7ff ff86 	bl	10003a6 <printfsend>
                break;
 100049a:	e79a      	b.n	10003d2 <MyPrintf+0xe>
                ulValue = va_arg(vaArgP, unsigned long);
 100049c:	9b07      	ldr	r3, [sp, #28]
 100049e:	1d1a      	adds	r2, r3, #4
 10004a0:	681b      	ldr	r3, [r3, #0]
 10004a2:	9207      	str	r2, [sp, #28]
                if ((long)ulValue < 0)
 10004a4:	2b00      	cmp	r3, #0
 10004a6:	db02      	blt.n	10004ae <MyPrintf+0xea>
                ulValue = va_arg(vaArgP, unsigned long);
 10004a8:	9306      	str	r3, [sp, #24]
                ulNeg = 0;
 10004aa:	2700      	movs	r7, #0
 10004ac:	e002      	b.n	10004b4 <MyPrintf+0xf0>
                    ulNeg = 1;
 10004ae:	2701      	movs	r7, #1
                    ulValue = -(long)ulValue;
 10004b0:	425b      	negs	r3, r3
 10004b2:	9306      	str	r3, [sp, #24]
                ulBase = 10;
 10004b4:	230a      	movs	r3, #10
                for (ulIdx = 1;
 10004b6:	2601      	movs	r6, #1
                ulBase = 16;
 10004b8:	9301      	str	r3, [sp, #4]
                        (((ulIdx * ulBase) <= ulValue) &&
 10004ba:	9b06      	ldr	r3, [sp, #24]
 10004bc:	9305      	str	r3, [sp, #20]
 10004be:	9d01      	ldr	r5, [sp, #4]
                for (ulIdx = 1;
 10004c0:	9b05      	ldr	r3, [sp, #20]
                        (((ulIdx * ulBase) <= ulValue) &&
 10004c2:	4375      	muls	r5, r6
                for (ulIdx = 1;
 10004c4:	429d      	cmp	r5, r3
 10004c6:	d805      	bhi.n	10004d4 <MyPrintf+0x110>
                         (((ulIdx * ulBase) / ulBase) == ulIdx));
 10004c8:	9901      	ldr	r1, [sp, #4]
 10004ca:	0028      	movs	r0, r5
 10004cc:	f003 fd2e 	bl	1003f2c <__udivsi3>
                        (((ulIdx * ulBase) <= ulValue) &&
 10004d0:	42b0      	cmp	r0, r6
 10004d2:	d049      	beq.n	1000568 <MyPrintf+0x1a4>
 10004d4:	2500      	movs	r5, #0
                if (ulNeg)
 10004d6:	42af      	cmp	r7, r5
 10004d8:	d008      	beq.n	10004ec <MyPrintf+0x128>
                if (ulNeg && (cFill == '0'))
 10004da:	9b03      	ldr	r3, [sp, #12]
                    ulCount--;
 10004dc:	3c01      	subs	r4, #1
                if (ulNeg && (cFill == '0'))
 10004de:	2b30      	cmp	r3, #48	; 0x30
 10004e0:	d104      	bne.n	10004ec <MyPrintf+0x128>
                    pcBuf[ulPos++] = '-';
 10004e2:	222d      	movs	r2, #45	; 0x2d
 10004e4:	003d      	movs	r5, r7
                    ulNeg = 0;
 10004e6:	2700      	movs	r7, #0
                    pcBuf[ulPos++] = '-';
 10004e8:	ab08      	add	r3, sp, #32
 10004ea:	701a      	strb	r2, [r3, #0]
                if ((ulCount > 1) && (ulCount < 16))
 10004ec:	1ea3      	subs	r3, r4, #2
 10004ee:	2b0d      	cmp	r3, #13
 10004f0:	d80a      	bhi.n	1000508 <MyPrintf+0x144>
                    for (ulCount--; ulCount; ulCount--)
 10004f2:	1e63      	subs	r3, r4, #1
 10004f4:	192d      	adds	r5, r5, r4
                        pcBuf[ulPos++] = cFill;
 10004f6:	a908      	add	r1, sp, #32
 10004f8:	1aea      	subs	r2, r5, r3
 10004fa:	9803      	ldr	r0, [sp, #12]
 10004fc:	3a01      	subs	r2, #1
                    for (ulCount--; ulCount; ulCount--)
 10004fe:	3b01      	subs	r3, #1
                        pcBuf[ulPos++] = cFill;
 1000500:	5488      	strb	r0, [r1, r2]
                    for (ulCount--; ulCount; ulCount--)
 1000502:	2b00      	cmp	r3, #0
 1000504:	d1f8      	bne.n	10004f8 <MyPrintf+0x134>
 1000506:	3d01      	subs	r5, #1
                if (ulNeg)
 1000508:	2f00      	cmp	r7, #0
 100050a:	d005      	beq.n	1000518 <MyPrintf+0x154>
                    pcBuf[ulPos++] = '-';
 100050c:	2108      	movs	r1, #8
 100050e:	232d      	movs	r3, #45	; 0x2d
 1000510:	aa06      	add	r2, sp, #24
 1000512:	1852      	adds	r2, r2, r1
 1000514:	5553      	strb	r3, [r2, r5]
 1000516:	3501      	adds	r5, #1
                        pcBuf[ulPos++] = g_pcHex1[(ulValue / ulIdx) % ulBase];//x
 1000518:	4f23      	ldr	r7, [pc, #140]	; (10005a8 <MyPrintf+0x1e4>)
 100051a:	ac08      	add	r4, sp, #32
                for (; ulIdx; ulIdx /= ulBase)
 100051c:	2e00      	cmp	r6, #0
 100051e:	d126      	bne.n	100056e <MyPrintf+0x1aa>
                printfsend(UART0, (uint8_t *)pcBuf, ulPos);
 1000520:	002a      	movs	r2, r5
 1000522:	a908      	add	r1, sp, #32
 1000524:	e7b6      	b.n	1000494 <MyPrintf+0xd0>
                pcStr = (int8_t *)va_arg(vaArgP, char *);
 1000526:	9b07      	ldr	r3, [sp, #28]
 1000528:	6819      	ldr	r1, [r3, #0]
 100052a:	1d1a      	adds	r2, r3, #4
                for (ulIdx = 0; pcStr[ulIdx] != '\0'; ulIdx++)
 100052c:	000b      	movs	r3, r1
                pcStr = (int8_t *)va_arg(vaArgP, char *);
 100052e:	9207      	str	r2, [sp, #28]
                for (ulIdx = 0; pcStr[ulIdx] != '\0'; ulIdx++)
 1000530:	2000      	movs	r0, #0
 1000532:	1a5d      	subs	r5, r3, r1
 1000534:	3301      	adds	r3, #1
 1000536:	1e5a      	subs	r2, r3, #1
 1000538:	5610      	ldrsb	r0, [r2, r0]
 100053a:	2800      	cmp	r0, #0
 100053c:	d1f8      	bne.n	1000530 <MyPrintf+0x16c>
                printfsend(UART0, (uint8_t *)pcStr, ulIdx);
 100053e:	002a      	movs	r2, r5
 1000540:	f7ff ff31 	bl	10003a6 <printfsend>
                if (ulCount > ulIdx)
 1000544:	42ac      	cmp	r4, r5
 1000546:	d800      	bhi.n	100054a <MyPrintf+0x186>
 1000548:	e743      	b.n	10003d2 <MyPrintf+0xe>
                    ulCount -= ulIdx;
 100054a:	1b64      	subs	r4, r4, r5
                    while (ulCount--)
 100054c:	3c01      	subs	r4, #1
 100054e:	d200      	bcs.n	1000552 <MyPrintf+0x18e>
 1000550:	e73f      	b.n	10003d2 <MyPrintf+0xe>
                        printfsend(UART0, (uint8_t *)" ", 1);
 1000552:	2201      	movs	r2, #1
 1000554:	4915      	ldr	r1, [pc, #84]	; (10005ac <MyPrintf+0x1e8>)
 1000556:	2000      	movs	r0, #0
 1000558:	f7ff ff25 	bl	10003a6 <printfsend>
 100055c:	e7f6      	b.n	100054c <MyPrintf+0x188>
                ulValue = va_arg(vaArgP, unsigned long);
 100055e:	9b07      	ldr	r3, [sp, #28]
 1000560:	1d1a      	adds	r2, r3, #4
 1000562:	9207      	str	r2, [sp, #28]
 1000564:	681b      	ldr	r3, [r3, #0]
 1000566:	e79f      	b.n	10004a8 <MyPrintf+0xe4>
                        ulIdx *= ulBase, ulCount--)
 1000568:	3c01      	subs	r4, #1
 100056a:	002e      	movs	r6, r5
 100056c:	e7a7      	b.n	10004be <MyPrintf+0xfa>
 100056e:	0031      	movs	r1, r6
 1000570:	9805      	ldr	r0, [sp, #20]
 1000572:	f003 fcdb 	bl	1003f2c <__udivsi3>
 1000576:	9901      	ldr	r1, [sp, #4]
 1000578:	f003 fd5e 	bl	1004038 <__aeabi_uidivmod>
                    if (HexFormat == 'x')
 100057c:	9b04      	ldr	r3, [sp, #16]
 100057e:	2b78      	cmp	r3, #120	; 0x78
 1000580:	d108      	bne.n	1000594 <MyPrintf+0x1d0>
                        pcBuf[ulPos++] = g_pcHex1[(ulValue / ulIdx) % ulBase];//x
 1000582:	5c7b      	ldrb	r3, [r7, r1]
                        pcBuf[ulPos++] = g_pcHex2[(ulValue / ulIdx) % ulBase];//X
 1000584:	5563      	strb	r3, [r4, r5]
                for (; ulIdx; ulIdx /= ulBase)
 1000586:	0030      	movs	r0, r6
 1000588:	9901      	ldr	r1, [sp, #4]
 100058a:	f003 fccf 	bl	1003f2c <__udivsi3>
 100058e:	3501      	adds	r5, #1
 1000590:	0006      	movs	r6, r0
 1000592:	e7c3      	b.n	100051c <MyPrintf+0x158>
                        pcBuf[ulPos++] = g_pcHex2[(ulValue / ulIdx) % ulBase];//X
 1000594:	4b06      	ldr	r3, [pc, #24]	; (10005b0 <MyPrintf+0x1ec>)
 1000596:	5c5b      	ldrb	r3, [r3, r1]
 1000598:	e7f4      	b.n	1000584 <MyPrintf+0x1c0>
            }
            }//switch
        }//if
    }//while
    va_end(vaArgP);
}
 100059a:	b00d      	add	sp, #52	; 0x34
 100059c:	bcf0      	pop	{r4, r5, r6, r7}
 100059e:	bc08      	pop	{r3}
 10005a0:	b004      	add	sp, #16
 10005a2:	4718      	bx	r3
 10005a4:	01004244 	.word	0x01004244
 10005a8:	01004218 	.word	0x01004218
 10005ac:	0100425d 	.word	0x0100425d
 10005b0:	01004229 	.word	0x01004229

010005b4 <printv>:

void printv(uint8_t *buf, uint32_t len, uint8_t *s)
{
 10005b4:	b5f7      	push	{r0, r1, r2, r4, r5, r6, r7, lr}
 10005b6:	0005      	movs	r5, r0
 10005b8:	000c      	movs	r4, r1
    uint32_t i = 0;
    uint32_t n = 0;
    MyPrintf("\r\n %s:", s);
 10005ba:	480d      	ldr	r0, [pc, #52]	; (10005f0 <printv+0x3c>)
 10005bc:	0011      	movs	r1, r2
 10005be:	f7ff ff01 	bl	10003c4 <MyPrintf>
    uint32_t n = 0;
 10005c2:	2600      	movs	r6, #0
 10005c4:	192b      	adds	r3, r5, r4
    for (i = 0; i < len; i++)
    {
        if (i % 16 == 0)
 10005c6:	270f      	movs	r7, #15
    for (i = 0; i < len; i++)
 10005c8:	002c      	movs	r4, r5
 10005ca:	9301      	str	r3, [sp, #4]
 10005cc:	9a01      	ldr	r2, [sp, #4]
 10005ce:	1b63      	subs	r3, r4, r5
 10005d0:	4294      	cmp	r4, r2
 10005d2:	d100      	bne.n	10005d6 <printv+0x22>
            n += 16;
        }
        MyPrintf("%02x ", buf[i]);

    }
}
 10005d4:	bdf7      	pop	{r0, r1, r2, r4, r5, r6, r7, pc}
        if (i % 16 == 0)
 10005d6:	423b      	tst	r3, r7
 10005d8:	d104      	bne.n	10005e4 <printv+0x30>
            MyPrintf("\r\n%08x:", n);
 10005da:	0031      	movs	r1, r6
 10005dc:	4805      	ldr	r0, [pc, #20]	; (10005f4 <printv+0x40>)
 10005de:	f7ff fef1 	bl	10003c4 <MyPrintf>
            n += 16;
 10005e2:	3610      	adds	r6, #16
        MyPrintf("%02x ", buf[i]);
 10005e4:	7821      	ldrb	r1, [r4, #0]
 10005e6:	4804      	ldr	r0, [pc, #16]	; (10005f8 <printv+0x44>)
 10005e8:	f7ff feec 	bl	10003c4 <MyPrintf>
 10005ec:	3401      	adds	r4, #1
 10005ee:	e7ed      	b.n	10005cc <printv+0x18>
 10005f0:	0100424a 	.word	0x0100424a
 10005f4:	01004251 	.word	0x01004251
 10005f8:	01004259 	.word	0x01004259

010005fc <_assert_handler>:

void _assert_handler(const char *file, int line, const char *func)
{
 10005fc:	e7fe      	b.n	10005fc <_assert_handler>
	...

01000600 <NVIC_SetPriority>:
#define __NVIC_PRIO_BITS               2            /*!< Number of Bits used for Priority Levels                               */
#define __Vendor_SysTickConfig         0            /*!< Set to 1 if different SysTick Config is used                          */
/* End of group Configuration_of_CMSIS */

uint32_t NVIC_SetPriority(IRQn_Type IRQn, uint32_t priority)
{
 1000600:	b530      	push	{r4, r5, lr}
 1000602:	25ff      	movs	r5, #255	; 0xff
 1000604:	2403      	movs	r4, #3
 1000606:	002a      	movs	r2, r5
 1000608:	b2c3      	uxtb	r3, r0
 100060a:	401c      	ands	r4, r3
 100060c:	00e4      	lsls	r4, r4, #3
 100060e:	40a2      	lsls	r2, r4
 1000610:	0189      	lsls	r1, r1, #6
 1000612:	4029      	ands	r1, r5
 1000614:	43d2      	mvns	r2, r2
 1000616:	40a1      	lsls	r1, r4
    if ((int32_t)(IRQn) < 0)
 1000618:	2800      	cmp	r0, #0
 100061a:	da0c      	bge.n	1000636 <NVIC_SetPriority+0x36>
    {
        SCB->SHP[_SHP_IDX(IRQn)] = ((uint32_t)(SCB->SHP[_SHP_IDX(IRQn)] & ~(0xFFUL << _BIT_SHIFT(IRQn))) |
 100061c:	200f      	movs	r0, #15
 100061e:	4003      	ands	r3, r0
 1000620:	3b08      	subs	r3, #8
 1000622:	480a      	ldr	r0, [pc, #40]	; (100064c <NVIC_SetPriority+0x4c>)
 1000624:	089b      	lsrs	r3, r3, #2
 1000626:	009b      	lsls	r3, r3, #2
 1000628:	181b      	adds	r3, r3, r0
 100062a:	69d8      	ldr	r0, [r3, #28]
 100062c:	4002      	ands	r2, r0
 100062e:	4311      	orrs	r1, r2
 1000630:	61d9      	str	r1, [r3, #28]
    {
        NVIC->IP[_IP_IDX(IRQn)]  = ((uint32_t)(NVIC->IP[_IP_IDX(IRQn)]  & ~(0xFFUL << _BIT_SHIFT(IRQn))) |
                                    (((priority << (8U - __NVIC_PRIO_BITS)) & (uint32_t)0xFFUL) << _BIT_SHIFT(IRQn)));
    }
    return SUCCESS;
}
 1000632:	2001      	movs	r0, #1
 1000634:	bd30      	pop	{r4, r5, pc}
 1000636:	4b06      	ldr	r3, [pc, #24]	; (1000650 <NVIC_SetPriority+0x50>)
        NVIC->IP[_IP_IDX(IRQn)]  = ((uint32_t)(NVIC->IP[_IP_IDX(IRQn)]  & ~(0xFFUL << _BIT_SHIFT(IRQn))) |
 1000638:	0880      	lsrs	r0, r0, #2
 100063a:	0080      	lsls	r0, r0, #2
 100063c:	18c0      	adds	r0, r0, r3
 100063e:	23c0      	movs	r3, #192	; 0xc0
 1000640:	009b      	lsls	r3, r3, #2
 1000642:	58c4      	ldr	r4, [r0, r3]
 1000644:	4022      	ands	r2, r4
 1000646:	4311      	orrs	r1, r2
 1000648:	50c1      	str	r1, [r0, r3]
 100064a:	e7f2      	b.n	1000632 <NVIC_SetPriority+0x32>
 100064c:	e000ed00 	.word	0xe000ed00
 1000650:	e000e100 	.word	0xe000e100

01000654 <trigger_PendSV>:

#define SBC_ICSR_PENDSV_IRQ	28
void trigger_PendSV(void)
{
    SCB->ICSR |= (1 << SBC_ICSR_PENDSV_IRQ);
 1000654:	2380      	movs	r3, #128	; 0x80
 1000656:	4a03      	ldr	r2, [pc, #12]	; (1000664 <trigger_PendSV+0x10>)
 1000658:	055b      	lsls	r3, r3, #21
 100065a:	6851      	ldr	r1, [r2, #4]
 100065c:	430b      	orrs	r3, r1
 100065e:	6053      	str	r3, [r2, #4]
}
 1000660:	4770      	bx	lr
 1000662:	46c0      	nop			; (mov r8, r8)
 1000664:	e000ed00 	.word	0xe000ed00

01000668 <NVIC_EnableIRQ>:
{
    SYSCTRL_CLK_CLS |= 1 << id;
}
static inline void enable_intr(int intid)
{
    NVIC_ISER |= 1 << intid;
 1000668:	2301      	movs	r3, #1
 100066a:	4083      	lsls	r3, r0
 100066c:	4a02      	ldr	r2, [pc, #8]	; (1000678 <NVIC_EnableIRQ+0x10>)
 100066e:	6811      	ldr	r1, [r2, #0]
 1000670:	430b      	orrs	r3, r1
 1000672:	6013      	str	r3, [r2, #0]

void	NVIC_EnableIRQ(IRQn_Type IRQnx)
{
    enable_intr((int) IRQnx);
}
 1000674:	4770      	bx	lr
 1000676:	46c0      	nop			; (mov r8, r8)
 1000678:	e000e100 	.word	0xe000e100

0100067c <NVIC_DisableIRQ>:
}
static inline void disable_intr(int intid)
{
    NVIC_ICER = 1 << intid;
 100067c:	2301      	movs	r3, #1
 100067e:	4083      	lsls	r3, r0
 1000680:	4a01      	ldr	r2, [pc, #4]	; (1000688 <NVIC_DisableIRQ+0xc>)
 1000682:	6013      	str	r3, [r2, #0]

void  NVIC_DisableIRQ(IRQn_Type IRQnx)
{
    disable_intr((int) IRQnx);
}
 1000684:	4770      	bx	lr
 1000686:	46c0      	nop			; (mov r8, r8)
 1000688:	e000e180 	.word	0xe000e180

0100068c <soft_reset>:

void soft_reset(void)
{
    SYSCTRL_RST_EN |= 0x01;
 100068c:	2301      	movs	r3, #1
 100068e:	4a04      	ldr	r2, [pc, #16]	; (10006a0 <soft_reset+0x14>)
 1000690:	6811      	ldr	r1, [r2, #0]
 1000692:	430b      	orrs	r3, r1
 1000694:	6013      	str	r3, [r2, #0]
    SYSCTRL_RESET = 0x55;
 1000696:	2255      	movs	r2, #85	; 0x55
 1000698:	4b02      	ldr	r3, [pc, #8]	; (10006a4 <soft_reset+0x18>)
 100069a:	601a      	str	r2, [r3, #0]
 100069c:	e7fe      	b.n	100069c <soft_reset+0x10>
 100069e:	46c0      	nop			; (mov r8, r8)
 10006a0:	000f8574 	.word	0x000f8574
 10006a4:	000f857c 	.word	0x000f857c

010006a8 <get_primask>:
    while (1);
}

uint32_t get_primask(void)
{
    __asm volatile("mrs r0, primask");
 10006a8:	f3ef 8010 	mrs	r0, PRIMASK
}
 10006ac:	4770      	bx	lr

010006ae <get_msp>:

uint32_t get_msp(void)
{
    __asm volatile("mrs r0, msp");
 10006ae:	f3ef 8008 	mrs	r0, MSP
}
 10006b2:	4770      	bx	lr

010006b4 <set_msp>:
    __asm volatile("msr msp,mainStackPointer");
}
#else
void set_msp(uint32_t mainStackPointer)
{
    __asm volatile("msr msp,r0");
 10006b4:	f380 8808 	msr	MSP, r0
}
 10006b8:	4770      	bx	lr
	...

010006bc <GPIO_Config>:

#include "yc_gpio.h"
#include "yc_lpm.h"

void GPIO_Config(GPIO_TypeDef GPIOx, uint16_t GPIO_Pin, GPIO_FunTypeDef function)
{
 10006bc:	b570      	push	{r4, r5, r6, lr}
 10006be:	0005      	movs	r5, r0
 10006c0:	000c      	movs	r4, r1
 10006c2:	0016      	movs	r6, r2
    _ASSERT(ISGPIOGROUP(GPIOx));
 10006c4:	2802      	cmp	r0, #2
 10006c6:	d904      	bls.n	10006d2 <GPIO_Config+0x16>
 10006c8:	4a21      	ldr	r2, [pc, #132]	; (1000750 <GPIO_Config+0x94>)
 10006ca:	210e      	movs	r1, #14
 10006cc:	4821      	ldr	r0, [pc, #132]	; (1000754 <GPIO_Config+0x98>)
 10006ce:	f7ff ff95 	bl	10005fc <_assert_handler>
    _ASSERT(IS_GET_GPIO_PIN(GPIO_Pin));
 10006d2:	1e63      	subs	r3, r4, #1
 10006d4:	2b01      	cmp	r3, #1
 10006d6:	d92c      	bls.n	1000732 <GPIO_Config+0x76>
 10006d8:	2204      	movs	r2, #4
 10006da:	1f23      	subs	r3, r4, #4
 10006dc:	4393      	bics	r3, r2
 10006de:	b29b      	uxth	r3, r3
 10006e0:	2b00      	cmp	r3, #0
 10006e2:	d026      	beq.n	1000732 <GPIO_Config+0x76>
 10006e4:	0023      	movs	r3, r4
 10006e6:	320c      	adds	r2, #12
 10006e8:	3b10      	subs	r3, #16
 10006ea:	4393      	bics	r3, r2
 10006ec:	b29b      	uxth	r3, r3
 10006ee:	2b00      	cmp	r3, #0
 10006f0:	d01f      	beq.n	1000732 <GPIO_Config+0x76>
 10006f2:	0023      	movs	r3, r4
 10006f4:	3230      	adds	r2, #48	; 0x30
 10006f6:	3b40      	subs	r3, #64	; 0x40
 10006f8:	4393      	bics	r3, r2
 10006fa:	b29b      	uxth	r3, r3
 10006fc:	2b00      	cmp	r3, #0
 10006fe:	d018      	beq.n	1000732 <GPIO_Config+0x76>
 1000700:	1e63      	subs	r3, r4, #1
 1000702:	4a15      	ldr	r2, [pc, #84]	; (1000758 <GPIO_Config+0x9c>)
 1000704:	3bff      	subs	r3, #255	; 0xff
 1000706:	4213      	tst	r3, r2
 1000708:	d013      	beq.n	1000732 <GPIO_Config+0x76>
 100070a:	4b14      	ldr	r3, [pc, #80]	; (100075c <GPIO_Config+0xa0>)
 100070c:	4a14      	ldr	r2, [pc, #80]	; (1000760 <GPIO_Config+0xa4>)
 100070e:	18e3      	adds	r3, r4, r3
 1000710:	4213      	tst	r3, r2
 1000712:	d00e      	beq.n	1000732 <GPIO_Config+0x76>
 1000714:	4b13      	ldr	r3, [pc, #76]	; (1000764 <GPIO_Config+0xa8>)
 1000716:	4a14      	ldr	r2, [pc, #80]	; (1000768 <GPIO_Config+0xac>)
 1000718:	18e3      	adds	r3, r4, r3
 100071a:	4213      	tst	r3, r2
 100071c:	d009      	beq.n	1000732 <GPIO_Config+0x76>
 100071e:	4b13      	ldr	r3, [pc, #76]	; (100076c <GPIO_Config+0xb0>)
 1000720:	4a13      	ldr	r2, [pc, #76]	; (1000770 <GPIO_Config+0xb4>)
 1000722:	18e3      	adds	r3, r4, r3
 1000724:	4213      	tst	r3, r2
 1000726:	d004      	beq.n	1000732 <GPIO_Config+0x76>
 1000728:	4a09      	ldr	r2, [pc, #36]	; (1000750 <GPIO_Config+0x94>)
 100072a:	210f      	movs	r1, #15
 100072c:	4809      	ldr	r0, [pc, #36]	; (1000754 <GPIO_Config+0x98>)
 100072e:	f7ff ff65 	bl	10005fc <_assert_handler>
    int i;

    for (i = 0; i < GPIO_PIN_NUM; i++)
    {
        if (GPIO_Pin & 1 << i)
            GPIO_CONFIG(GPIOx * GPIO_PIN_NUM + i) = function;
 1000732:	4b10      	ldr	r3, [pc, #64]	; (1000774 <GPIO_Config+0xb8>)
        if (GPIO_Pin & 1 << i)
 1000734:	2201      	movs	r2, #1
            GPIO_CONFIG(GPIOx * GPIO_PIN_NUM + i) = function;
 1000736:	18ed      	adds	r5, r5, r3
 1000738:	2300      	movs	r3, #0
 100073a:	012d      	lsls	r5, r5, #4
        if (GPIO_Pin & 1 << i)
 100073c:	0021      	movs	r1, r4
 100073e:	4119      	asrs	r1, r3
 1000740:	4211      	tst	r1, r2
 1000742:	d001      	beq.n	1000748 <GPIO_Config+0x8c>
 1000744:	1959      	adds	r1, r3, r5
            GPIO_CONFIG(GPIOx * GPIO_PIN_NUM + i) = function;
 1000746:	700e      	strb	r6, [r1, #0]
    for (i = 0; i < GPIO_PIN_NUM; i++)
 1000748:	3301      	adds	r3, #1
 100074a:	2b10      	cmp	r3, #16
 100074c:	d1f6      	bne.n	100073c <GPIO_Config+0x80>
    }
}
 100074e:	bd70      	pop	{r4, r5, r6, pc}
 1000750:	0100541c 	.word	0x0100541c
 1000754:	010053f5 	.word	0x010053f5
 1000758:	0000feff 	.word	0x0000feff
 100075c:	fffffc00 	.word	0xfffffc00
 1000760:	0000fbff 	.word	0x0000fbff
 1000764:	fffff000 	.word	0xfffff000
 1000768:	0000efff 	.word	0x0000efff
 100076c:	ffffc000 	.word	0xffffc000
 1000770:	0000bfff 	.word	0x0000bfff
 1000774:	0000f870 	.word	0x0000f870

01000778 <GPIO_Init>:

void GPIO_Init(GPIO_TypeDef GPIOx, GPIO_InitTypeDef *GPIO_InitStruct)
{
 1000778:	b570      	push	{r4, r5, r6, lr}
 100077a:	0004      	movs	r4, r0
 100077c:	000d      	movs	r5, r1
    _ASSERT(ISGPIOGROUP(GPIOx));
 100077e:	2802      	cmp	r0, #2
 1000780:	d904      	bls.n	100078c <GPIO_Init+0x14>
 1000782:	4a2f      	ldr	r2, [pc, #188]	; (1000840 <GPIO_Init+0xc8>)
 1000784:	211c      	movs	r1, #28
 1000786:	482f      	ldr	r0, [pc, #188]	; (1000844 <GPIO_Init+0xcc>)
 1000788:	f7ff ff38 	bl	10005fc <_assert_handler>
    _ASSERT(IS_GPIO_PIN(GPIO_InitStruct->GPIO_Pin));
 100078c:	882b      	ldrh	r3, [r5, #0]
 100078e:	2b00      	cmp	r3, #0
 1000790:	d104      	bne.n	100079c <GPIO_Init+0x24>
 1000792:	4a2b      	ldr	r2, [pc, #172]	; (1000840 <GPIO_Init+0xc8>)
 1000794:	211d      	movs	r1, #29
 1000796:	482b      	ldr	r0, [pc, #172]	; (1000844 <GPIO_Init+0xcc>)
 1000798:	f7ff ff30 	bl	10005fc <_assert_handler>
    _ASSERT(IS_GPIO_MODE(GPIO_InitStruct->GPIO_Mode));
 100079c:	78ab      	ldrb	r3, [r5, #2]
 100079e:	3b01      	subs	r3, #1
 10007a0:	2b04      	cmp	r3, #4
 10007a2:	d904      	bls.n	10007ae <GPIO_Init+0x36>
 10007a4:	4a26      	ldr	r2, [pc, #152]	; (1000840 <GPIO_Init+0xc8>)
 10007a6:	211e      	movs	r1, #30
 10007a8:	4826      	ldr	r0, [pc, #152]	; (1000844 <GPIO_Init+0xcc>)
 10007aa:	f7ff ff27 	bl	10005fc <_assert_handler>

    int i;

    switch (GPIO_InitStruct->GPIO_Mode)
 10007ae:	78a8      	ldrb	r0, [r5, #2]
 10007b0:	3801      	subs	r0, #1
 10007b2:	2804      	cmp	r0, #4
 10007b4:	d813      	bhi.n	10007de <GPIO_Init+0x66>
 10007b6:	4b24      	ldr	r3, [pc, #144]	; (1000848 <GPIO_Init+0xd0>)
                GPIO_CONFIG(GPIOx * GPIO_PIN_NUM + i) = 0xC0;
        }
        break;

    case GPIO_Mode_Out_PP:
        for (i = 0; i < GPIO_PIN_NUM; i++)
 10007b8:	2200      	movs	r2, #0
 10007ba:	18e3      	adds	r3, r4, r3
        {
            if (GPIO_InitStruct->GPIO_Pin & 1 << i)
                GPIO_CONFIG(GPIOx * GPIO_PIN_NUM + i) = 0x3E;
 10007bc:	011b      	lsls	r3, r3, #4
    switch (GPIO_InitStruct->GPIO_Mode)
 10007be:	f003 fba1 	bl	1003f04 <__gnu_thumb1_case_uqi>
 10007c2:	0f03      	.short	0x0f03
 10007c4:	271b      	.short	0x271b
 10007c6:	33          	.byte	0x33
 10007c7:	00          	.byte	0x00
            if (GPIO_InitStruct->GPIO_Pin & 1 << i)
 10007c8:	2001      	movs	r0, #1
                GPIO_CONFIG(GPIOx * GPIO_PIN_NUM + i) = 0x00;
 10007ca:	0014      	movs	r4, r2
            if (GPIO_InitStruct->GPIO_Pin & 1 << i)
 10007cc:	8829      	ldrh	r1, [r5, #0]
 10007ce:	4111      	asrs	r1, r2
 10007d0:	4201      	tst	r1, r0
 10007d2:	d001      	beq.n	10007d8 <GPIO_Init+0x60>
 10007d4:	18d1      	adds	r1, r2, r3
                GPIO_CONFIG(GPIOx * GPIO_PIN_NUM + i) = 0x00;
 10007d6:	700c      	strb	r4, [r1, #0]
        for (i = 0; i < GPIO_PIN_NUM; i++)
 10007d8:	3201      	adds	r2, #1
 10007da:	2a10      	cmp	r2, #16
 10007dc:	d1f6      	bne.n	10007cc <GPIO_Init+0x54>
        break;

    default:
        break;
    }
}
 10007de:	bd70      	pop	{r4, r5, r6, pc}
            if (GPIO_InitStruct->GPIO_Pin & 1 << i)
 10007e0:	2001      	movs	r0, #1
                GPIO_CONFIG(GPIOx * GPIO_PIN_NUM + i) = 0x40;
 10007e2:	2440      	movs	r4, #64	; 0x40
            if (GPIO_InitStruct->GPIO_Pin & 1 << i)
 10007e4:	8829      	ldrh	r1, [r5, #0]
 10007e6:	4111      	asrs	r1, r2
 10007e8:	4201      	tst	r1, r0
 10007ea:	d001      	beq.n	10007f0 <GPIO_Init+0x78>
 10007ec:	18d1      	adds	r1, r2, r3
                GPIO_CONFIG(GPIOx * GPIO_PIN_NUM + i) = 0x40;
 10007ee:	700c      	strb	r4, [r1, #0]
        for (i = 0; i < GPIO_PIN_NUM; i++)
 10007f0:	3201      	adds	r2, #1
 10007f2:	2a10      	cmp	r2, #16
 10007f4:	d1f6      	bne.n	10007e4 <GPIO_Init+0x6c>
 10007f6:	e7f2      	b.n	10007de <GPIO_Init+0x66>
            if (GPIO_InitStruct->GPIO_Pin & 1 << i)
 10007f8:	2001      	movs	r0, #1
                GPIO_CONFIG(GPIOx * GPIO_PIN_NUM + i) = 0x80;
 10007fa:	2480      	movs	r4, #128	; 0x80
            if (GPIO_InitStruct->GPIO_Pin & 1 << i)
 10007fc:	8829      	ldrh	r1, [r5, #0]
 10007fe:	4111      	asrs	r1, r2
 1000800:	4201      	tst	r1, r0
 1000802:	d001      	beq.n	1000808 <GPIO_Init+0x90>
 1000804:	18d1      	adds	r1, r2, r3
                GPIO_CONFIG(GPIOx * GPIO_PIN_NUM + i) = 0x80;
 1000806:	700c      	strb	r4, [r1, #0]
        for (i = 0; i < GPIO_PIN_NUM; i++)
 1000808:	3201      	adds	r2, #1
 100080a:	2a10      	cmp	r2, #16
 100080c:	d1f6      	bne.n	10007fc <GPIO_Init+0x84>
 100080e:	e7e6      	b.n	10007de <GPIO_Init+0x66>
            if (GPIO_InitStruct->GPIO_Pin & 1 << i)
 1000810:	2001      	movs	r0, #1
                GPIO_CONFIG(GPIOx * GPIO_PIN_NUM + i) = 0xC0;
 1000812:	24c0      	movs	r4, #192	; 0xc0
            if (GPIO_InitStruct->GPIO_Pin & 1 << i)
 1000814:	8829      	ldrh	r1, [r5, #0]
 1000816:	4111      	asrs	r1, r2
 1000818:	4201      	tst	r1, r0
 100081a:	d001      	beq.n	1000820 <GPIO_Init+0xa8>
 100081c:	18d1      	adds	r1, r2, r3
                GPIO_CONFIG(GPIOx * GPIO_PIN_NUM + i) = 0xC0;
 100081e:	700c      	strb	r4, [r1, #0]
        for (i = 0; i < GPIO_PIN_NUM; i++)
 1000820:	3201      	adds	r2, #1
 1000822:	2a10      	cmp	r2, #16
 1000824:	d1f6      	bne.n	1000814 <GPIO_Init+0x9c>
 1000826:	e7da      	b.n	10007de <GPIO_Init+0x66>
            if (GPIO_InitStruct->GPIO_Pin & 1 << i)
 1000828:	2001      	movs	r0, #1
                GPIO_CONFIG(GPIOx * GPIO_PIN_NUM + i) = 0x3E;
 100082a:	243e      	movs	r4, #62	; 0x3e
            if (GPIO_InitStruct->GPIO_Pin & 1 << i)
 100082c:	8829      	ldrh	r1, [r5, #0]
 100082e:	4111      	asrs	r1, r2
 1000830:	4201      	tst	r1, r0
 1000832:	d001      	beq.n	1000838 <GPIO_Init+0xc0>
 1000834:	18d1      	adds	r1, r2, r3
                GPIO_CONFIG(GPIOx * GPIO_PIN_NUM + i) = 0x3E;
 1000836:	700c      	strb	r4, [r1, #0]
        for (i = 0; i < GPIO_PIN_NUM; i++)
 1000838:	3201      	adds	r2, #1
 100083a:	2a10      	cmp	r2, #16
 100083c:	d1f6      	bne.n	100082c <GPIO_Init+0xb4>
 100083e:	e7ce      	b.n	10007de <GPIO_Init+0x66>
 1000840:	01005428 	.word	0x01005428
 1000844:	010053f5 	.word	0x010053f5
 1000848:	0000f870 	.word	0x0000f870

0100084c <GPIO_PullUpCmd>:

void GPIO_PullUpCmd(GPIO_TypeDef GPIOx, uint16_t GPIO_Pin, FunctionalState NewState)
{
 100084c:	b5f8      	push	{r3, r4, r5, r6, r7, lr}
 100084e:	0005      	movs	r5, r0
 1000850:	000c      	movs	r4, r1
 1000852:	0016      	movs	r6, r2
    _ASSERT(ISGPIOGROUP(GPIOx));
 1000854:	2802      	cmp	r0, #2
 1000856:	d904      	bls.n	1000862 <GPIO_PullUpCmd+0x16>
 1000858:	4a27      	ldr	r2, [pc, #156]	; (10008f8 <GPIO_PullUpCmd+0xac>)
 100085a:	2153      	movs	r1, #83	; 0x53
 100085c:	4827      	ldr	r0, [pc, #156]	; (10008fc <GPIO_PullUpCmd+0xb0>)
 100085e:	f7ff fecd 	bl	10005fc <_assert_handler>
    _ASSERT(IS_GET_GPIO_PIN(GPIO_Pin));
 1000862:	1e63      	subs	r3, r4, #1
 1000864:	2b01      	cmp	r3, #1
 1000866:	d92c      	bls.n	10008c2 <GPIO_PullUpCmd+0x76>
 1000868:	2204      	movs	r2, #4
 100086a:	1f23      	subs	r3, r4, #4
 100086c:	4393      	bics	r3, r2
 100086e:	b29b      	uxth	r3, r3
 1000870:	2b00      	cmp	r3, #0
 1000872:	d026      	beq.n	10008c2 <GPIO_PullUpCmd+0x76>
 1000874:	0023      	movs	r3, r4
 1000876:	320c      	adds	r2, #12
 1000878:	3b10      	subs	r3, #16
 100087a:	4393      	bics	r3, r2
 100087c:	b29b      	uxth	r3, r3
 100087e:	2b00      	cmp	r3, #0
 1000880:	d01f      	beq.n	10008c2 <GPIO_PullUpCmd+0x76>
 1000882:	0023      	movs	r3, r4
 1000884:	3230      	adds	r2, #48	; 0x30
 1000886:	3b40      	subs	r3, #64	; 0x40
 1000888:	4393      	bics	r3, r2
 100088a:	b29b      	uxth	r3, r3
 100088c:	2b00      	cmp	r3, #0
 100088e:	d018      	beq.n	10008c2 <GPIO_PullUpCmd+0x76>
 1000890:	1e63      	subs	r3, r4, #1
 1000892:	4a1b      	ldr	r2, [pc, #108]	; (1000900 <GPIO_PullUpCmd+0xb4>)
 1000894:	3bff      	subs	r3, #255	; 0xff
 1000896:	4213      	tst	r3, r2
 1000898:	d013      	beq.n	10008c2 <GPIO_PullUpCmd+0x76>
 100089a:	4b1a      	ldr	r3, [pc, #104]	; (1000904 <GPIO_PullUpCmd+0xb8>)
 100089c:	4a1a      	ldr	r2, [pc, #104]	; (1000908 <GPIO_PullUpCmd+0xbc>)
 100089e:	18e3      	adds	r3, r4, r3
 10008a0:	4213      	tst	r3, r2
 10008a2:	d00e      	beq.n	10008c2 <GPIO_PullUpCmd+0x76>
 10008a4:	4b19      	ldr	r3, [pc, #100]	; (100090c <GPIO_PullUpCmd+0xc0>)
 10008a6:	4a1a      	ldr	r2, [pc, #104]	; (1000910 <GPIO_PullUpCmd+0xc4>)
 10008a8:	18e3      	adds	r3, r4, r3
 10008aa:	4213      	tst	r3, r2
 10008ac:	d009      	beq.n	10008c2 <GPIO_PullUpCmd+0x76>
 10008ae:	4b19      	ldr	r3, [pc, #100]	; (1000914 <GPIO_PullUpCmd+0xc8>)
 10008b0:	4a19      	ldr	r2, [pc, #100]	; (1000918 <GPIO_PullUpCmd+0xcc>)
 10008b2:	18e3      	adds	r3, r4, r3
 10008b4:	4213      	tst	r3, r2
 10008b6:	d004      	beq.n	10008c2 <GPIO_PullUpCmd+0x76>
 10008b8:	4a0f      	ldr	r2, [pc, #60]	; (10008f8 <GPIO_PullUpCmd+0xac>)
 10008ba:	2154      	movs	r1, #84	; 0x54
 10008bc:	480f      	ldr	r0, [pc, #60]	; (10008fc <GPIO_PullUpCmd+0xb0>)
 10008be:	f7ff fe9d 	bl	10005fc <_assert_handler>
            {
                GPIO_CONFIG(GPIOx * GPIO_PIN_NUM + i) |= 1 << 6;
            }
            else if (NewState == DISABLE)
            {
                GPIO_CONFIG(GPIOx * GPIO_PIN_NUM + i) &= ~(1 << 6);
 10008c2:	4b16      	ldr	r3, [pc, #88]	; (100091c <GPIO_PullUpCmd+0xd0>)
        if (GPIO_Pin & 1 << i)
 10008c4:	2001      	movs	r0, #1
                GPIO_CONFIG(GPIOx * GPIO_PIN_NUM + i) &= ~(1 << 6);
 10008c6:	18ed      	adds	r5, r5, r3
 10008c8:	2140      	movs	r1, #64	; 0x40
 10008ca:	2300      	movs	r3, #0
 10008cc:	012d      	lsls	r5, r5, #4
        if (GPIO_Pin & 1 << i)
 10008ce:	0022      	movs	r2, r4
 10008d0:	411a      	asrs	r2, r3
 10008d2:	4202      	tst	r2, r0
 10008d4:	d005      	beq.n	10008e2 <GPIO_PullUpCmd+0x96>
            if (NewState == ENABLE)
 10008d6:	2e01      	cmp	r6, #1
 10008d8:	d107      	bne.n	10008ea <GPIO_PullUpCmd+0x9e>
 10008da:	195f      	adds	r7, r3, r5
                GPIO_CONFIG(GPIOx * GPIO_PIN_NUM + i) |= 1 << 6;
 10008dc:	783a      	ldrb	r2, [r7, #0]
 10008de:	430a      	orrs	r2, r1
                GPIO_CONFIG(GPIOx * GPIO_PIN_NUM + i) &= ~(1 << 6);
 10008e0:	703a      	strb	r2, [r7, #0]
    for (i = 0; i < GPIO_PIN_NUM; i++)
 10008e2:	3301      	adds	r3, #1
 10008e4:	2b10      	cmp	r3, #16
 10008e6:	d1f2      	bne.n	10008ce <GPIO_PullUpCmd+0x82>
            }
        }
    }
}
 10008e8:	bdf8      	pop	{r3, r4, r5, r6, r7, pc}
            else if (NewState == DISABLE)
 10008ea:	2e00      	cmp	r6, #0
 10008ec:	d1f9      	bne.n	10008e2 <GPIO_PullUpCmd+0x96>
 10008ee:	195f      	adds	r7, r3, r5
                GPIO_CONFIG(GPIOx * GPIO_PIN_NUM + i) &= ~(1 << 6);
 10008f0:	783a      	ldrb	r2, [r7, #0]
 10008f2:	438a      	bics	r2, r1
 10008f4:	e7f4      	b.n	10008e0 <GPIO_PullUpCmd+0x94>
 10008f6:	46c0      	nop			; (mov r8, r8)
 10008f8:	01005432 	.word	0x01005432
 10008fc:	010053f5 	.word	0x010053f5
 1000900:	0000feff 	.word	0x0000feff
 1000904:	fffffc00 	.word	0xfffffc00
 1000908:	0000fbff 	.word	0x0000fbff
 100090c:	fffff000 	.word	0xfffff000
 1000910:	0000efff 	.word	0x0000efff
 1000914:	ffffc000 	.word	0xffffc000
 1000918:	0000bfff 	.word	0x0000bfff
 100091c:	0000f870 	.word	0x0000f870

01000920 <GPIO_ReadInputData>:

uint16_t GPIO_ReadInputData(GPIO_TypeDef GPIOx)
{
 1000920:	b510      	push	{r4, lr}
 1000922:	0004      	movs	r4, r0
    _ASSERT(ISGPIOGROUP(GPIOx));
 1000924:	2802      	cmp	r0, #2
 1000926:	d904      	bls.n	1000932 <GPIO_ReadInputData+0x12>
 1000928:	4a05      	ldr	r2, [pc, #20]	; (1000940 <GPIO_ReadInputData+0x20>)
 100092a:	216a      	movs	r1, #106	; 0x6a
 100092c:	4805      	ldr	r0, [pc, #20]	; (1000944 <GPIO_ReadInputData+0x24>)
 100092e:	f7ff fe65 	bl	10005fc <_assert_handler>

    return GPIO_IN(GPIOx);
 1000932:	4b05      	ldr	r3, [pc, #20]	; (1000948 <GPIO_ReadInputData+0x28>)
 1000934:	0064      	lsls	r4, r4, #1
 1000936:	18e4      	adds	r4, r4, r3
 1000938:	8820      	ldrh	r0, [r4, #0]
 100093a:	b280      	uxth	r0, r0
}
 100093c:	bd10      	pop	{r4, pc}
 100093e:	46c0      	nop			; (mov r8, r8)
 1000940:	01005441 	.word	0x01005441
 1000944:	010053f5 	.word	0x010053f5
 1000948:	000f873c 	.word	0x000f873c

0100094c <GPIO_ReadInputDataBit>:

uint8_t GPIO_ReadInputDataBit(GPIO_TypeDef GPIOx, uint16_t GPIO_Pin)
{
 100094c:	b570      	push	{r4, r5, r6, lr}
 100094e:	0005      	movs	r5, r0
 1000950:	000c      	movs	r4, r1
    _ASSERT(ISGPIOGROUP(GPIOx));
 1000952:	2802      	cmp	r0, #2
 1000954:	d904      	bls.n	1000960 <GPIO_ReadInputDataBit+0x14>
 1000956:	4a1f      	ldr	r2, [pc, #124]	; (10009d4 <GPIO_ReadInputDataBit+0x88>)
 1000958:	2171      	movs	r1, #113	; 0x71
 100095a:	481f      	ldr	r0, [pc, #124]	; (10009d8 <GPIO_ReadInputDataBit+0x8c>)
 100095c:	f7ff fe4e 	bl	10005fc <_assert_handler>
    _ASSERT(IS_GET_GPIO_PIN(GPIO_Pin));
 1000960:	1e63      	subs	r3, r4, #1
 1000962:	2b01      	cmp	r3, #1
 1000964:	d92c      	bls.n	10009c0 <GPIO_ReadInputDataBit+0x74>
 1000966:	2204      	movs	r2, #4
 1000968:	1f23      	subs	r3, r4, #4
 100096a:	4393      	bics	r3, r2
 100096c:	b29b      	uxth	r3, r3
 100096e:	2b00      	cmp	r3, #0
 1000970:	d026      	beq.n	10009c0 <GPIO_ReadInputDataBit+0x74>
 1000972:	0023      	movs	r3, r4
 1000974:	320c      	adds	r2, #12
 1000976:	3b10      	subs	r3, #16
 1000978:	4393      	bics	r3, r2
 100097a:	b29b      	uxth	r3, r3
 100097c:	2b00      	cmp	r3, #0
 100097e:	d01f      	beq.n	10009c0 <GPIO_ReadInputDataBit+0x74>
 1000980:	0023      	movs	r3, r4
 1000982:	3230      	adds	r2, #48	; 0x30
 1000984:	3b40      	subs	r3, #64	; 0x40
 1000986:	4393      	bics	r3, r2
 1000988:	b29b      	uxth	r3, r3
 100098a:	2b00      	cmp	r3, #0
 100098c:	d018      	beq.n	10009c0 <GPIO_ReadInputDataBit+0x74>
 100098e:	1e63      	subs	r3, r4, #1
 1000990:	4a12      	ldr	r2, [pc, #72]	; (10009dc <GPIO_ReadInputDataBit+0x90>)
 1000992:	3bff      	subs	r3, #255	; 0xff
 1000994:	4213      	tst	r3, r2
 1000996:	d013      	beq.n	10009c0 <GPIO_ReadInputDataBit+0x74>
 1000998:	4b11      	ldr	r3, [pc, #68]	; (10009e0 <GPIO_ReadInputDataBit+0x94>)
 100099a:	4a12      	ldr	r2, [pc, #72]	; (10009e4 <GPIO_ReadInputDataBit+0x98>)
 100099c:	18e3      	adds	r3, r4, r3
 100099e:	4213      	tst	r3, r2
 10009a0:	d00e      	beq.n	10009c0 <GPIO_ReadInputDataBit+0x74>
 10009a2:	4b11      	ldr	r3, [pc, #68]	; (10009e8 <GPIO_ReadInputDataBit+0x9c>)
 10009a4:	4a11      	ldr	r2, [pc, #68]	; (10009ec <GPIO_ReadInputDataBit+0xa0>)
 10009a6:	18e3      	adds	r3, r4, r3
 10009a8:	4213      	tst	r3, r2
 10009aa:	d009      	beq.n	10009c0 <GPIO_ReadInputDataBit+0x74>
 10009ac:	4b10      	ldr	r3, [pc, #64]	; (10009f0 <GPIO_ReadInputDataBit+0xa4>)
 10009ae:	4a11      	ldr	r2, [pc, #68]	; (10009f4 <GPIO_ReadInputDataBit+0xa8>)
 10009b0:	18e3      	adds	r3, r4, r3
 10009b2:	4213      	tst	r3, r2
 10009b4:	d004      	beq.n	10009c0 <GPIO_ReadInputDataBit+0x74>
 10009b6:	4a07      	ldr	r2, [pc, #28]	; (10009d4 <GPIO_ReadInputDataBit+0x88>)
 10009b8:	2172      	movs	r1, #114	; 0x72
 10009ba:	4807      	ldr	r0, [pc, #28]	; (10009d8 <GPIO_ReadInputDataBit+0x8c>)
 10009bc:	f7ff fe1e 	bl	10005fc <_assert_handler>

    if (GPIO_IN(GPIOx) & GPIO_Pin)
 10009c0:	4b0d      	ldr	r3, [pc, #52]	; (10009f8 <GPIO_ReadInputDataBit+0xac>)
 10009c2:	006d      	lsls	r5, r5, #1
 10009c4:	18ed      	adds	r5, r5, r3
 10009c6:	8828      	ldrh	r0, [r5, #0]
 10009c8:	4004      	ands	r4, r0
 10009ca:	1e60      	subs	r0, r4, #1
 10009cc:	4184      	sbcs	r4, r0
 10009ce:	b2e0      	uxtb	r0, r4
    }
    else
    {
        return (uint8_t)0x00;
    }
}
 10009d0:	bd70      	pop	{r4, r5, r6, pc}
 10009d2:	46c0      	nop			; (mov r8, r8)
 10009d4:	01005454 	.word	0x01005454
 10009d8:	010053f5 	.word	0x010053f5
 10009dc:	0000feff 	.word	0x0000feff
 10009e0:	fffffc00 	.word	0xfffffc00
 10009e4:	0000fbff 	.word	0x0000fbff
 10009e8:	fffff000 	.word	0xfffff000
 10009ec:	0000efff 	.word	0x0000efff
 10009f0:	ffffc000 	.word	0xffffc000
 10009f4:	0000bfff 	.word	0x0000bfff
 10009f8:	000f873c 	.word	0x000f873c

010009fc <GPIO_ReadOutputData>:

uint16_t GPIO_ReadOutputData(GPIO_TypeDef GPIOx)
{
 10009fc:	b510      	push	{r4, lr}
 10009fe:	0004      	movs	r4, r0
    _ASSERT(ISGPIOGROUP(GPIOx));
 1000a00:	2802      	cmp	r0, #2
 1000a02:	d904      	bls.n	1000a0e <GPIO_ReadOutputData+0x12>
 1000a04:	4a05      	ldr	r2, [pc, #20]	; (1000a1c <GPIO_ReadOutputData+0x20>)
 1000a06:	2180      	movs	r1, #128	; 0x80
 1000a08:	4805      	ldr	r0, [pc, #20]	; (1000a20 <GPIO_ReadOutputData+0x24>)
 1000a0a:	f7ff fdf7 	bl	10005fc <_assert_handler>

    return GPIO_IN(GPIOx);
 1000a0e:	4b05      	ldr	r3, [pc, #20]	; (1000a24 <GPIO_ReadOutputData+0x28>)
 1000a10:	0064      	lsls	r4, r4, #1
 1000a12:	18e4      	adds	r4, r4, r3
 1000a14:	8820      	ldrh	r0, [r4, #0]
 1000a16:	b280      	uxth	r0, r0
}
 1000a18:	bd10      	pop	{r4, pc}
 1000a1a:	46c0      	nop			; (mov r8, r8)
 1000a1c:	0100546a 	.word	0x0100546a
 1000a20:	010053f5 	.word	0x010053f5
 1000a24:	000f873c 	.word	0x000f873c

01000a28 <GPIO_ReadOutputDataBit>:

uint8_t GPIO_ReadOutputDataBit(GPIO_TypeDef GPIOx, uint16_t GPIO_Pin)
{
 1000a28:	b570      	push	{r4, r5, r6, lr}
 1000a2a:	0005      	movs	r5, r0
 1000a2c:	000c      	movs	r4, r1
    _ASSERT(ISGPIOGROUP(GPIOx));
 1000a2e:	2802      	cmp	r0, #2
 1000a30:	d904      	bls.n	1000a3c <GPIO_ReadOutputDataBit+0x14>
 1000a32:	4a1f      	ldr	r2, [pc, #124]	; (1000ab0 <GPIO_ReadOutputDataBit+0x88>)
 1000a34:	2187      	movs	r1, #135	; 0x87
 1000a36:	481f      	ldr	r0, [pc, #124]	; (1000ab4 <GPIO_ReadOutputDataBit+0x8c>)
 1000a38:	f7ff fde0 	bl	10005fc <_assert_handler>
    _ASSERT(IS_GET_GPIO_PIN(GPIO_Pin));
 1000a3c:	1e63      	subs	r3, r4, #1
 1000a3e:	2b01      	cmp	r3, #1
 1000a40:	d92c      	bls.n	1000a9c <GPIO_ReadOutputDataBit+0x74>
 1000a42:	2204      	movs	r2, #4
 1000a44:	1f23      	subs	r3, r4, #4
 1000a46:	4393      	bics	r3, r2
 1000a48:	b29b      	uxth	r3, r3
 1000a4a:	2b00      	cmp	r3, #0
 1000a4c:	d026      	beq.n	1000a9c <GPIO_ReadOutputDataBit+0x74>
 1000a4e:	0023      	movs	r3, r4
 1000a50:	320c      	adds	r2, #12
 1000a52:	3b10      	subs	r3, #16
 1000a54:	4393      	bics	r3, r2
 1000a56:	b29b      	uxth	r3, r3
 1000a58:	2b00      	cmp	r3, #0
 1000a5a:	d01f      	beq.n	1000a9c <GPIO_ReadOutputDataBit+0x74>
 1000a5c:	0023      	movs	r3, r4
 1000a5e:	3230      	adds	r2, #48	; 0x30
 1000a60:	3b40      	subs	r3, #64	; 0x40
 1000a62:	4393      	bics	r3, r2
 1000a64:	b29b      	uxth	r3, r3
 1000a66:	2b00      	cmp	r3, #0
 1000a68:	d018      	beq.n	1000a9c <GPIO_ReadOutputDataBit+0x74>
 1000a6a:	1e63      	subs	r3, r4, #1
 1000a6c:	4a12      	ldr	r2, [pc, #72]	; (1000ab8 <GPIO_ReadOutputDataBit+0x90>)
 1000a6e:	3bff      	subs	r3, #255	; 0xff
 1000a70:	4213      	tst	r3, r2
 1000a72:	d013      	beq.n	1000a9c <GPIO_ReadOutputDataBit+0x74>
 1000a74:	4b11      	ldr	r3, [pc, #68]	; (1000abc <GPIO_ReadOutputDataBit+0x94>)
 1000a76:	4a12      	ldr	r2, [pc, #72]	; (1000ac0 <GPIO_ReadOutputDataBit+0x98>)
 1000a78:	18e3      	adds	r3, r4, r3
 1000a7a:	4213      	tst	r3, r2
 1000a7c:	d00e      	beq.n	1000a9c <GPIO_ReadOutputDataBit+0x74>
 1000a7e:	4b11      	ldr	r3, [pc, #68]	; (1000ac4 <GPIO_ReadOutputDataBit+0x9c>)
 1000a80:	4a11      	ldr	r2, [pc, #68]	; (1000ac8 <GPIO_ReadOutputDataBit+0xa0>)
 1000a82:	18e3      	adds	r3, r4, r3
 1000a84:	4213      	tst	r3, r2
 1000a86:	d009      	beq.n	1000a9c <GPIO_ReadOutputDataBit+0x74>
 1000a88:	4b10      	ldr	r3, [pc, #64]	; (1000acc <GPIO_ReadOutputDataBit+0xa4>)
 1000a8a:	4a11      	ldr	r2, [pc, #68]	; (1000ad0 <GPIO_ReadOutputDataBit+0xa8>)
 1000a8c:	18e3      	adds	r3, r4, r3
 1000a8e:	4213      	tst	r3, r2
 1000a90:	d004      	beq.n	1000a9c <GPIO_ReadOutputDataBit+0x74>
 1000a92:	4a07      	ldr	r2, [pc, #28]	; (1000ab0 <GPIO_ReadOutputDataBit+0x88>)
 1000a94:	2188      	movs	r1, #136	; 0x88
 1000a96:	4807      	ldr	r0, [pc, #28]	; (1000ab4 <GPIO_ReadOutputDataBit+0x8c>)
 1000a98:	f7ff fdb0 	bl	10005fc <_assert_handler>

    if (GPIO_IN(GPIOx) & GPIO_Pin)
 1000a9c:	4b0d      	ldr	r3, [pc, #52]	; (1000ad4 <GPIO_ReadOutputDataBit+0xac>)
 1000a9e:	006d      	lsls	r5, r5, #1
 1000aa0:	18ed      	adds	r5, r5, r3
 1000aa2:	8828      	ldrh	r0, [r5, #0]
 1000aa4:	4004      	ands	r4, r0
 1000aa6:	1e60      	subs	r0, r4, #1
 1000aa8:	4184      	sbcs	r4, r0
 1000aaa:	b2e0      	uxtb	r0, r4
    }
    else
    {
        return (uint8_t)0x00;
    }
}
 1000aac:	bd70      	pop	{r4, r5, r6, pc}
 1000aae:	46c0      	nop			; (mov r8, r8)
 1000ab0:	0100547e 	.word	0x0100547e
 1000ab4:	010053f5 	.word	0x010053f5
 1000ab8:	0000feff 	.word	0x0000feff
 1000abc:	fffffc00 	.word	0xfffffc00
 1000ac0:	0000fbff 	.word	0x0000fbff
 1000ac4:	fffff000 	.word	0xfffff000
 1000ac8:	0000efff 	.word	0x0000efff
 1000acc:	ffffc000 	.word	0xffffc000
 1000ad0:	0000bfff 	.word	0x0000bfff
 1000ad4:	000f873c 	.word	0x000f873c

01000ad8 <GPIO_ResetBits>:

void GPIO_ResetBits(GPIO_TypeDef GPIOx, uint16_t GPIO_Pin)
{
 1000ad8:	b570      	push	{r4, r5, r6, lr}
 1000ada:	0005      	movs	r5, r0
 1000adc:	000c      	movs	r4, r1
    _ASSERT(ISGPIOGROUP(GPIOx));
 1000ade:	2802      	cmp	r0, #2
 1000ae0:	d904      	bls.n	1000aec <GPIO_ResetBits+0x14>
 1000ae2:	4a24      	ldr	r2, [pc, #144]	; (1000b74 <GPIO_ResetBits+0x9c>)
 1000ae4:	2196      	movs	r1, #150	; 0x96
 1000ae6:	4824      	ldr	r0, [pc, #144]	; (1000b78 <GPIO_ResetBits+0xa0>)
 1000ae8:	f7ff fd88 	bl	10005fc <_assert_handler>
    _ASSERT(IS_GET_GPIO_PIN(GPIO_Pin));
 1000aec:	1e63      	subs	r3, r4, #1
 1000aee:	2b01      	cmp	r3, #1
 1000af0:	d92c      	bls.n	1000b4c <GPIO_ResetBits+0x74>
 1000af2:	2204      	movs	r2, #4
 1000af4:	1f23      	subs	r3, r4, #4
 1000af6:	4393      	bics	r3, r2
 1000af8:	b29b      	uxth	r3, r3
 1000afa:	2b00      	cmp	r3, #0
 1000afc:	d026      	beq.n	1000b4c <GPIO_ResetBits+0x74>
 1000afe:	0023      	movs	r3, r4
 1000b00:	320c      	adds	r2, #12
 1000b02:	3b10      	subs	r3, #16
 1000b04:	4393      	bics	r3, r2
 1000b06:	b29b      	uxth	r3, r3
 1000b08:	2b00      	cmp	r3, #0
 1000b0a:	d01f      	beq.n	1000b4c <GPIO_ResetBits+0x74>
 1000b0c:	0023      	movs	r3, r4
 1000b0e:	3230      	adds	r2, #48	; 0x30
 1000b10:	3b40      	subs	r3, #64	; 0x40
 1000b12:	4393      	bics	r3, r2
 1000b14:	b29b      	uxth	r3, r3
 1000b16:	2b00      	cmp	r3, #0
 1000b18:	d018      	beq.n	1000b4c <GPIO_ResetBits+0x74>
 1000b1a:	1e63      	subs	r3, r4, #1
 1000b1c:	4a17      	ldr	r2, [pc, #92]	; (1000b7c <GPIO_ResetBits+0xa4>)
 1000b1e:	3bff      	subs	r3, #255	; 0xff
 1000b20:	4213      	tst	r3, r2
 1000b22:	d013      	beq.n	1000b4c <GPIO_ResetBits+0x74>
 1000b24:	4b16      	ldr	r3, [pc, #88]	; (1000b80 <GPIO_ResetBits+0xa8>)
 1000b26:	4a17      	ldr	r2, [pc, #92]	; (1000b84 <GPIO_ResetBits+0xac>)
 1000b28:	18e3      	adds	r3, r4, r3
 1000b2a:	4213      	tst	r3, r2
 1000b2c:	d00e      	beq.n	1000b4c <GPIO_ResetBits+0x74>
 1000b2e:	4b16      	ldr	r3, [pc, #88]	; (1000b88 <GPIO_ResetBits+0xb0>)
 1000b30:	4a16      	ldr	r2, [pc, #88]	; (1000b8c <GPIO_ResetBits+0xb4>)
 1000b32:	18e3      	adds	r3, r4, r3
 1000b34:	4213      	tst	r3, r2
 1000b36:	d009      	beq.n	1000b4c <GPIO_ResetBits+0x74>
 1000b38:	4b15      	ldr	r3, [pc, #84]	; (1000b90 <GPIO_ResetBits+0xb8>)
 1000b3a:	4a16      	ldr	r2, [pc, #88]	; (1000b94 <GPIO_ResetBits+0xbc>)
 1000b3c:	18e3      	adds	r3, r4, r3
 1000b3e:	4213      	tst	r3, r2
 1000b40:	d004      	beq.n	1000b4c <GPIO_ResetBits+0x74>
 1000b42:	4a0c      	ldr	r2, [pc, #48]	; (1000b74 <GPIO_ResetBits+0x9c>)
 1000b44:	2197      	movs	r1, #151	; 0x97
 1000b46:	480c      	ldr	r0, [pc, #48]	; (1000b78 <GPIO_ResetBits+0xa0>)
 1000b48:	f7ff fd58 	bl	10005fc <_assert_handler>

    for (i = 0; i < GPIO_PIN_NUM; i++)
    {
        if (GPIO_Pin & 1 << i)
        {
            Temp = GPIO_CONFIG(GPIOx * GPIO_PIN_NUM + i);
 1000b4c:	4b12      	ldr	r3, [pc, #72]	; (1000b98 <GPIO_ResetBits+0xc0>)
        if (GPIO_Pin & 1 << i)
 1000b4e:	2101      	movs	r1, #1
            Temp = GPIO_CONFIG(GPIOx * GPIO_PIN_NUM + i);
 1000b50:	18ed      	adds	r5, r5, r3
            Temp |= 0x3F; //00111111
            Temp &= 0xFE; //11111110
 1000b52:	263e      	movs	r6, #62	; 0x3e
            Temp = GPIO_CONFIG(GPIOx * GPIO_PIN_NUM + i);
 1000b54:	2300      	movs	r3, #0
 1000b56:	012d      	lsls	r5, r5, #4
        if (GPIO_Pin & 1 << i)
 1000b58:	0022      	movs	r2, r4
 1000b5a:	411a      	asrs	r2, r3
 1000b5c:	420a      	tst	r2, r1
 1000b5e:	d004      	beq.n	1000b6a <GPIO_ResetBits+0x92>
 1000b60:	1958      	adds	r0, r3, r5
            Temp = GPIO_CONFIG(GPIOx * GPIO_PIN_NUM + i);
 1000b62:	7802      	ldrb	r2, [r0, #0]
 1000b64:	438a      	bics	r2, r1
            Temp &= 0xFE; //11111110
 1000b66:	4332      	orrs	r2, r6
            GPIO_CONFIG(GPIOx * GPIO_PIN_NUM + i) = Temp;
 1000b68:	7002      	strb	r2, [r0, #0]
    for (i = 0; i < GPIO_PIN_NUM; i++)
 1000b6a:	3301      	adds	r3, #1
 1000b6c:	2b10      	cmp	r3, #16
 1000b6e:	d1f3      	bne.n	1000b58 <GPIO_ResetBits+0x80>
        }
    }
}
 1000b70:	bd70      	pop	{r4, r5, r6, pc}
 1000b72:	46c0      	nop			; (mov r8, r8)
 1000b74:	01005495 	.word	0x01005495
 1000b78:	010053f5 	.word	0x010053f5
 1000b7c:	0000feff 	.word	0x0000feff
 1000b80:	fffffc00 	.word	0xfffffc00
 1000b84:	0000fbff 	.word	0x0000fbff
 1000b88:	fffff000 	.word	0xfffff000
 1000b8c:	0000efff 	.word	0x0000efff
 1000b90:	ffffc000 	.word	0xffffc000
 1000b94:	0000bfff 	.word	0x0000bfff
 1000b98:	0000f870 	.word	0x0000f870

01000b9c <GPIO_SetBits>:

void GPIO_SetBits(GPIO_TypeDef GPIOx, uint16_t GPIO_Pin)
{
 1000b9c:	b570      	push	{r4, r5, r6, lr}
 1000b9e:	0005      	movs	r5, r0
 1000ba0:	000c      	movs	r4, r1
    _ASSERT(ISGPIOGROUP(GPIOx));
 1000ba2:	2802      	cmp	r0, #2
 1000ba4:	d904      	bls.n	1000bb0 <GPIO_SetBits+0x14>
 1000ba6:	4a23      	ldr	r2, [pc, #140]	; (1000c34 <GPIO_SetBits+0x98>)
 1000ba8:	21aa      	movs	r1, #170	; 0xaa
 1000baa:	4823      	ldr	r0, [pc, #140]	; (1000c38 <GPIO_SetBits+0x9c>)
 1000bac:	f7ff fd26 	bl	10005fc <_assert_handler>
    _ASSERT(IS_GET_GPIO_PIN(GPIO_Pin));
 1000bb0:	1e63      	subs	r3, r4, #1
 1000bb2:	2b01      	cmp	r3, #1
 1000bb4:	d92c      	bls.n	1000c10 <GPIO_SetBits+0x74>
 1000bb6:	2204      	movs	r2, #4
 1000bb8:	1f23      	subs	r3, r4, #4
 1000bba:	4393      	bics	r3, r2
 1000bbc:	b29b      	uxth	r3, r3
 1000bbe:	2b00      	cmp	r3, #0
 1000bc0:	d026      	beq.n	1000c10 <GPIO_SetBits+0x74>
 1000bc2:	0023      	movs	r3, r4
 1000bc4:	320c      	adds	r2, #12
 1000bc6:	3b10      	subs	r3, #16
 1000bc8:	4393      	bics	r3, r2
 1000bca:	b29b      	uxth	r3, r3
 1000bcc:	2b00      	cmp	r3, #0
 1000bce:	d01f      	beq.n	1000c10 <GPIO_SetBits+0x74>
 1000bd0:	0023      	movs	r3, r4
 1000bd2:	3230      	adds	r2, #48	; 0x30
 1000bd4:	3b40      	subs	r3, #64	; 0x40
 1000bd6:	4393      	bics	r3, r2
 1000bd8:	b29b      	uxth	r3, r3
 1000bda:	2b00      	cmp	r3, #0
 1000bdc:	d018      	beq.n	1000c10 <GPIO_SetBits+0x74>
 1000bde:	1e63      	subs	r3, r4, #1
 1000be0:	4a16      	ldr	r2, [pc, #88]	; (1000c3c <GPIO_SetBits+0xa0>)
 1000be2:	3bff      	subs	r3, #255	; 0xff
 1000be4:	4213      	tst	r3, r2
 1000be6:	d013      	beq.n	1000c10 <GPIO_SetBits+0x74>
 1000be8:	4b15      	ldr	r3, [pc, #84]	; (1000c40 <GPIO_SetBits+0xa4>)
 1000bea:	4a16      	ldr	r2, [pc, #88]	; (1000c44 <GPIO_SetBits+0xa8>)
 1000bec:	18e3      	adds	r3, r4, r3
 1000bee:	4213      	tst	r3, r2
 1000bf0:	d00e      	beq.n	1000c10 <GPIO_SetBits+0x74>
 1000bf2:	4b15      	ldr	r3, [pc, #84]	; (1000c48 <GPIO_SetBits+0xac>)
 1000bf4:	4a15      	ldr	r2, [pc, #84]	; (1000c4c <GPIO_SetBits+0xb0>)
 1000bf6:	18e3      	adds	r3, r4, r3
 1000bf8:	4213      	tst	r3, r2
 1000bfa:	d009      	beq.n	1000c10 <GPIO_SetBits+0x74>
 1000bfc:	4b14      	ldr	r3, [pc, #80]	; (1000c50 <GPIO_SetBits+0xb4>)
 1000bfe:	4a15      	ldr	r2, [pc, #84]	; (1000c54 <GPIO_SetBits+0xb8>)
 1000c00:	18e3      	adds	r3, r4, r3
 1000c02:	4213      	tst	r3, r2
 1000c04:	d004      	beq.n	1000c10 <GPIO_SetBits+0x74>
 1000c06:	4a0b      	ldr	r2, [pc, #44]	; (1000c34 <GPIO_SetBits+0x98>)
 1000c08:	21ab      	movs	r1, #171	; 0xab
 1000c0a:	480b      	ldr	r0, [pc, #44]	; (1000c38 <GPIO_SetBits+0x9c>)
 1000c0c:	f7ff fcf6 	bl	10005fc <_assert_handler>
    int i;

    for (i = 0; i < GPIO_PIN_NUM; i++)
    {
        if (GPIO_Pin & 1 << i)
            GPIO_CONFIG(GPIOx * GPIO_PIN_NUM + i) |= 0x3F; //00111111
 1000c10:	4b11      	ldr	r3, [pc, #68]	; (1000c58 <GPIO_SetBits+0xbc>)
        if (GPIO_Pin & 1 << i)
 1000c12:	2001      	movs	r0, #1
            GPIO_CONFIG(GPIOx * GPIO_PIN_NUM + i) |= 0x3F; //00111111
 1000c14:	18ed      	adds	r5, r5, r3
 1000c16:	263f      	movs	r6, #63	; 0x3f
 1000c18:	2300      	movs	r3, #0
 1000c1a:	012d      	lsls	r5, r5, #4
        if (GPIO_Pin & 1 << i)
 1000c1c:	0022      	movs	r2, r4
 1000c1e:	411a      	asrs	r2, r3
 1000c20:	4202      	tst	r2, r0
 1000c22:	d003      	beq.n	1000c2c <GPIO_SetBits+0x90>
 1000c24:	1959      	adds	r1, r3, r5
            GPIO_CONFIG(GPIOx * GPIO_PIN_NUM + i) |= 0x3F; //00111111
 1000c26:	780a      	ldrb	r2, [r1, #0]
 1000c28:	4332      	orrs	r2, r6
 1000c2a:	700a      	strb	r2, [r1, #0]
    for (i = 0; i < GPIO_PIN_NUM; i++)
 1000c2c:	3301      	adds	r3, #1
 1000c2e:	2b10      	cmp	r3, #16
 1000c30:	d1f4      	bne.n	1000c1c <GPIO_SetBits+0x80>
    }
}
 1000c32:	bd70      	pop	{r4, r5, r6, pc}
 1000c34:	010054a4 	.word	0x010054a4
 1000c38:	010053f5 	.word	0x010053f5
 1000c3c:	0000feff 	.word	0x0000feff
 1000c40:	fffffc00 	.word	0xfffffc00
 1000c44:	0000fbff 	.word	0x0000fbff
 1000c48:	fffff000 	.word	0xfffff000
 1000c4c:	0000efff 	.word	0x0000efff
 1000c50:	ffffc000 	.word	0xffffc000
 1000c54:	0000bfff 	.word	0x0000bfff
 1000c58:	0000f870 	.word	0x0000f870

01000c5c <GPIO_StructInit>:

void GPIO_StructInit(GPIO_InitTypeDef *GPIO_InitStruct)
{
    GPIO_InitStruct->GPIO_Pin  = GPIO_Pin_All;
 1000c5c:	2301      	movs	r3, #1
 1000c5e:	425b      	negs	r3, r3
 1000c60:	8003      	strh	r3, [r0, #0]
    GPIO_InitStruct->GPIO_Mode = GPIO_Mode_IN_FLOATING;
 1000c62:	3302      	adds	r3, #2
 1000c64:	7083      	strb	r3, [r0, #2]
}
 1000c66:	4770      	bx	lr

01000c68 <GPIO_Write>:

void GPIO_Write(GPIO_TypeDef GPIOx, uint16_t value)
{
 1000c68:	b5f8      	push	{r3, r4, r5, r6, r7, lr}
 1000c6a:	0005      	movs	r5, r0
 1000c6c:	000e      	movs	r6, r1
    _ASSERT(ISGPIOGROUP(GPIOx));
 1000c6e:	2802      	cmp	r0, #2
 1000c70:	d904      	bls.n	1000c7c <GPIO_Write+0x14>
 1000c72:	4a0c      	ldr	r2, [pc, #48]	; (1000ca4 <GPIO_Write+0x3c>)
 1000c74:	21be      	movs	r1, #190	; 0xbe
 1000c76:	480c      	ldr	r0, [pc, #48]	; (1000ca8 <GPIO_Write+0x40>)
 1000c78:	f7ff fcc0 	bl	10005fc <_assert_handler>
{
 1000c7c:	2400      	movs	r4, #0

    int i;

    for (i = 0; i < GPIO_PIN_NUM; i++)
    {
        if (BIT_GET(value, i))
 1000c7e:	2701      	movs	r7, #1
 1000c80:	003b      	movs	r3, r7
 1000c82:	40a3      	lsls	r3, r4
 1000c84:	b299      	uxth	r1, r3
 1000c86:	4033      	ands	r3, r6
 1000c88:	4123      	asrs	r3, r4
            GPIO_SetBits(GPIOx, 1 << i);
 1000c8a:	0028      	movs	r0, r5
        if (BIT_GET(value, i))
 1000c8c:	2b00      	cmp	r3, #0
 1000c8e:	d005      	beq.n	1000c9c <GPIO_Write+0x34>
            GPIO_SetBits(GPIOx, 1 << i);
 1000c90:	f7ff ff84 	bl	1000b9c <GPIO_SetBits>
    for (i = 0; i < GPIO_PIN_NUM; i++)
 1000c94:	3401      	adds	r4, #1
 1000c96:	2c10      	cmp	r4, #16
 1000c98:	d1f2      	bne.n	1000c80 <GPIO_Write+0x18>
        else
            GPIO_ResetBits(GPIOx, 1 << i);
    }
}
 1000c9a:	bdf8      	pop	{r3, r4, r5, r6, r7, pc}
            GPIO_ResetBits(GPIOx, 1 << i);
 1000c9c:	f7ff ff1c 	bl	1000ad8 <GPIO_ResetBits>
 1000ca0:	e7f8      	b.n	1000c94 <GPIO_Write+0x2c>
 1000ca2:	46c0      	nop			; (mov r8, r8)
 1000ca4:	010054b1 	.word	0x010054b1
 1000ca8:	010053f5 	.word	0x010053f5

01000cac <GPIO_WriteBit>:

void GPIO_WriteBit(GPIO_TypeDef GPIOx, uint16_t GPIO_Pin, BitAction BitVal)
{
 1000cac:	b570      	push	{r4, r5, r6, lr}
 1000cae:	0005      	movs	r5, r0
 1000cb0:	000c      	movs	r4, r1
 1000cb2:	0016      	movs	r6, r2
    _ASSERT(ISGPIOGROUP(GPIOx));
 1000cb4:	2802      	cmp	r0, #2
 1000cb6:	d904      	bls.n	1000cc2 <GPIO_WriteBit+0x16>
 1000cb8:	4a21      	ldr	r2, [pc, #132]	; (1000d40 <GPIO_WriteBit+0x94>)
 1000cba:	21cd      	movs	r1, #205	; 0xcd
 1000cbc:	4821      	ldr	r0, [pc, #132]	; (1000d44 <GPIO_WriteBit+0x98>)
 1000cbe:	f7ff fc9d 	bl	10005fc <_assert_handler>
    _ASSERT(IS_GET_GPIO_PIN(GPIO_Pin));
 1000cc2:	1e63      	subs	r3, r4, #1
 1000cc4:	2b01      	cmp	r3, #1
 1000cc6:	d92c      	bls.n	1000d22 <GPIO_WriteBit+0x76>
 1000cc8:	2204      	movs	r2, #4
 1000cca:	1f23      	subs	r3, r4, #4
 1000ccc:	4393      	bics	r3, r2
 1000cce:	b29b      	uxth	r3, r3
 1000cd0:	2b00      	cmp	r3, #0
 1000cd2:	d026      	beq.n	1000d22 <GPIO_WriteBit+0x76>
 1000cd4:	0023      	movs	r3, r4
 1000cd6:	320c      	adds	r2, #12
 1000cd8:	3b10      	subs	r3, #16
 1000cda:	4393      	bics	r3, r2
 1000cdc:	b29b      	uxth	r3, r3
 1000cde:	2b00      	cmp	r3, #0
 1000ce0:	d01f      	beq.n	1000d22 <GPIO_WriteBit+0x76>
 1000ce2:	0023      	movs	r3, r4
 1000ce4:	3230      	adds	r2, #48	; 0x30
 1000ce6:	3b40      	subs	r3, #64	; 0x40
 1000ce8:	4393      	bics	r3, r2
 1000cea:	b29b      	uxth	r3, r3
 1000cec:	2b00      	cmp	r3, #0
 1000cee:	d018      	beq.n	1000d22 <GPIO_WriteBit+0x76>
 1000cf0:	1e63      	subs	r3, r4, #1
 1000cf2:	4a15      	ldr	r2, [pc, #84]	; (1000d48 <GPIO_WriteBit+0x9c>)
 1000cf4:	3bff      	subs	r3, #255	; 0xff
 1000cf6:	4213      	tst	r3, r2
 1000cf8:	d013      	beq.n	1000d22 <GPIO_WriteBit+0x76>
 1000cfa:	4b14      	ldr	r3, [pc, #80]	; (1000d4c <GPIO_WriteBit+0xa0>)
 1000cfc:	4a14      	ldr	r2, [pc, #80]	; (1000d50 <GPIO_WriteBit+0xa4>)
 1000cfe:	18e3      	adds	r3, r4, r3
 1000d00:	4213      	tst	r3, r2
 1000d02:	d00e      	beq.n	1000d22 <GPIO_WriteBit+0x76>
 1000d04:	4b13      	ldr	r3, [pc, #76]	; (1000d54 <GPIO_WriteBit+0xa8>)
 1000d06:	4a14      	ldr	r2, [pc, #80]	; (1000d58 <GPIO_WriteBit+0xac>)
 1000d08:	18e3      	adds	r3, r4, r3
 1000d0a:	4213      	tst	r3, r2
 1000d0c:	d009      	beq.n	1000d22 <GPIO_WriteBit+0x76>
 1000d0e:	4b13      	ldr	r3, [pc, #76]	; (1000d5c <GPIO_WriteBit+0xb0>)
 1000d10:	4a13      	ldr	r2, [pc, #76]	; (1000d60 <GPIO_WriteBit+0xb4>)
 1000d12:	18e3      	adds	r3, r4, r3
 1000d14:	4213      	tst	r3, r2
 1000d16:	d004      	beq.n	1000d22 <GPIO_WriteBit+0x76>
 1000d18:	4a09      	ldr	r2, [pc, #36]	; (1000d40 <GPIO_WriteBit+0x94>)
 1000d1a:	21ce      	movs	r1, #206	; 0xce
 1000d1c:	4809      	ldr	r0, [pc, #36]	; (1000d44 <GPIO_WriteBit+0x98>)
 1000d1e:	f7ff fc6d 	bl	10005fc <_assert_handler>

    if (BitVal == Bit_SET)
 1000d22:	2e01      	cmp	r6, #1
 1000d24:	d104      	bne.n	1000d30 <GPIO_WriteBit+0x84>
        GPIO_SetBits(GPIOx, GPIO_Pin);
 1000d26:	0021      	movs	r1, r4
 1000d28:	0028      	movs	r0, r5
 1000d2a:	f7ff ff37 	bl	1000b9c <GPIO_SetBits>
    else if (BitVal == Bit_RESET)
        GPIO_ResetBits(GPIOx, GPIO_Pin);
}
 1000d2e:	bd70      	pop	{r4, r5, r6, pc}
    else if (BitVal == Bit_RESET)
 1000d30:	2e00      	cmp	r6, #0
 1000d32:	d1fc      	bne.n	1000d2e <GPIO_WriteBit+0x82>
        GPIO_ResetBits(GPIOx, GPIO_Pin);
 1000d34:	0021      	movs	r1, r4
 1000d36:	0028      	movs	r0, r5
 1000d38:	f7ff fece 	bl	1000ad8 <GPIO_ResetBits>
}
 1000d3c:	e7f7      	b.n	1000d2e <GPIO_WriteBit+0x82>
 1000d3e:	46c0      	nop			; (mov r8, r8)
 1000d40:	010054bc 	.word	0x010054bc
 1000d44:	010053f5 	.word	0x010053f5
 1000d48:	0000feff 	.word	0x0000feff
 1000d4c:	fffffc00 	.word	0xfffffc00
 1000d50:	0000fbff 	.word	0x0000fbff
 1000d54:	fffff000 	.word	0xfffff000
 1000d58:	0000efff 	.word	0x0000efff
 1000d5c:	ffffc000 	.word	0xffffc000
 1000d60:	0000bfff 	.word	0x0000bfff

01000d64 <delay_us>:
#include "yc_timer.h"
#include "rom_api.h"

void delay_us(int us)
{
 1000d64:	b510      	push	{r4, lr}
    ((void(*)(int))(FUNC_DELAY_US_ADDR))(us);
 1000d66:	4b01      	ldr	r3, [pc, #4]	; (1000d6c <delay_us+0x8>)
 1000d68:	4798      	blx	r3
}
 1000d6a:	bd10      	pop	{r4, pc}
 1000d6c:	00004239 	.word	0x00004239

01000d70 <delay_ms>:

void delay_ms(int ms)
{
 1000d70:	b510      	push	{r4, lr}
    ((void(*)(int))(FUNC_DELAY_MS_ADDR))(ms);
 1000d72:	4b01      	ldr	r3, [pc, #4]	; (1000d78 <delay_ms+0x8>)
 1000d74:	4798      	blx	r3
}
 1000d76:	bd10      	pop	{r4, pc}
 1000d78:	0000425d 	.word	0x0000425d

01000d7c <TIM_Init>:

void TIM_Init(TIM_InitTypeDef *TIM_init_struct)
{
    _ASSERT(ISTIMERNUM(TIM_init_struct->TIMx));
 1000d7c:	7803      	ldrb	r3, [r0, #0]
{
 1000d7e:	b510      	push	{r4, lr}
 1000d80:	0004      	movs	r4, r0
    _ASSERT(ISTIMERNUM(TIM_init_struct->TIMx));
 1000d82:	2b08      	cmp	r3, #8
 1000d84:	d904      	bls.n	1000d90 <TIM_Init+0x14>
 1000d86:	4a0f      	ldr	r2, [pc, #60]	; (1000dc4 <TIM_Init+0x48>)
 1000d88:	2110      	movs	r1, #16
 1000d8a:	480f      	ldr	r0, [pc, #60]	; (1000dc8 <TIM_Init+0x4c>)
 1000d8c:	f7ff fc36 	bl	10005fc <_assert_handler>

    TIM_Cmd(TIM_init_struct->TIMx, DISABLE);
 1000d90:	2100      	movs	r1, #0
 1000d92:	7820      	ldrb	r0, [r4, #0]
 1000d94:	f000 f828 	bl	1000de8 <TIM_Cmd>
    TIM_PCNT(TIM_init_struct->TIMx) = TIM_init_struct->period;
 1000d98:	7822      	ldrb	r2, [r4, #0]
 1000d9a:	4b0c      	ldr	r3, [pc, #48]	; (1000dcc <TIM_Init+0x50>)
 1000d9c:	6861      	ldr	r1, [r4, #4]
 1000d9e:	18d3      	adds	r3, r2, r3
 1000da0:	00db      	lsls	r3, r3, #3
 1000da2:	6019      	str	r1, [r3, #0]
 1000da4:	230c      	movs	r3, #12
    if (TIM_init_struct->TIMx < TIM8)
 1000da6:	2a07      	cmp	r2, #7
 1000da8:	d806      	bhi.n	1000db8 <TIM_Init+0x3c>
        TIM_CTRL |= (((((uint32_t)1) << TIM_CTRL_MODE) | (((uint32_t)1) << TIM_CTRL_AUTO_RELOAD)) << TIM_init_struct->TIMx * 4);
 1000daa:	0092      	lsls	r2, r2, #2
 1000dac:	4093      	lsls	r3, r2
 1000dae:	4908      	ldr	r1, [pc, #32]	; (1000dd0 <TIM_Init+0x54>)
 1000db0:	6808      	ldr	r0, [r1, #0]
 1000db2:	4303      	orrs	r3, r0
 1000db4:	600b      	str	r3, [r1, #0]
    else
        TIM_CTRL1 |= (((((uint32_t)1) << TIM_CTRL_MODE) | (((uint32_t)1) << TIM_CTRL_AUTO_RELOAD)) << 0);
}
 1000db6:	bd10      	pop	{r4, pc}
        TIM_CTRL1 |= (((((uint32_t)1) << TIM_CTRL_MODE) | (((uint32_t)1) << TIM_CTRL_AUTO_RELOAD)) << 0);
 1000db8:	4a06      	ldr	r2, [pc, #24]	; (1000dd4 <TIM_Init+0x58>)
 1000dba:	6811      	ldr	r1, [r2, #0]
 1000dbc:	430b      	orrs	r3, r1
 1000dbe:	6013      	str	r3, [r2, #0]
}
 1000dc0:	e7f9      	b.n	1000db6 <TIM_Init+0x3a>
 1000dc2:	46c0      	nop			; (mov r8, r8)
 1000dc4:	010054f2 	.word	0x010054f2
 1000dc8:	010054ca 	.word	0x010054ca
 1000dcc:	0001e180 	.word	0x0001e180
 1000dd0:	000f0c48 	.word	0x000f0c48
 1000dd4:	000f0c4c 	.word	0x000f0c4c

01000dd8 <TIM_DeInit>:
    SYSCTRL_CLK_CLS |= 1 << id;
 1000dd8:	2310      	movs	r3, #16
 1000dda:	4a02      	ldr	r2, [pc, #8]	; (1000de4 <TIM_DeInit+0xc>)
 1000ddc:	6811      	ldr	r1, [r2, #0]
 1000dde:	430b      	orrs	r3, r1
 1000de0:	6013      	str	r3, [r2, #0]

void TIM_DeInit()
{
    disable_clock(CLKCLS_TIM);
}
 1000de2:	4770      	bx	lr
 1000de4:	000f856c 	.word	0x000f856c

01000de8 <TIM_Cmd>:

void TIM_Cmd(TIM_NumTypeDef TIMx, FunctionalState NewState)
{
 1000de8:	b570      	push	{r4, r5, r6, lr}
 1000dea:	0004      	movs	r4, r0
 1000dec:	000d      	movs	r5, r1
    _ASSERT(ISTIMERNUM(TIMx));
 1000dee:	2808      	cmp	r0, #8
 1000df0:	d904      	bls.n	1000dfc <TIM_Cmd+0x14>
 1000df2:	4a10      	ldr	r2, [pc, #64]	; (1000e34 <TIM_Cmd+0x4c>)
 1000df4:	2121      	movs	r1, #33	; 0x21
 1000df6:	4810      	ldr	r0, [pc, #64]	; (1000e38 <TIM_Cmd+0x50>)
 1000df8:	f7ff fc00 	bl	10005fc <_assert_handler>

    if (NewState == ENABLE)
 1000dfc:	2d01      	cmp	r5, #1
 1000dfe:	d10b      	bne.n	1000e18 <TIM_Cmd+0x30>
    {
        if (TIMx < TIM8)
 1000e00:	2c07      	cmp	r4, #7
 1000e02:	d806      	bhi.n	1000e12 <TIM_Cmd+0x2a>
            TIM_CTRL |= ((((uint32_t)1) << TIM_CTRL_ENABLE) << TIMx * 4);
 1000e04:	00a4      	lsls	r4, r4, #2
 1000e06:	40a5      	lsls	r5, r4
 1000e08:	4b0c      	ldr	r3, [pc, #48]	; (1000e3c <TIM_Cmd+0x54>)
 1000e0a:	681a      	ldr	r2, [r3, #0]
        else
            TIM_CTRL1 |= ((((uint32_t)1) << TIM_CTRL_ENABLE) << 0);
 1000e0c:	4315      	orrs	r5, r2
 1000e0e:	601d      	str	r5, [r3, #0]
        if (TIMx < TIM8)
            TIM_CTRL &= ~((((uint32_t)1) << TIM_CTRL_ENABLE) << TIMx * 4);
        else
            TIM_CTRL1 &= ~((((uint32_t)1) << TIM_CTRL_ENABLE) << 0);
    }
}
 1000e10:	bd70      	pop	{r4, r5, r6, pc}
            TIM_CTRL1 |= ((((uint32_t)1) << TIM_CTRL_ENABLE) << 0);
 1000e12:	4b0b      	ldr	r3, [pc, #44]	; (1000e40 <TIM_Cmd+0x58>)
 1000e14:	681a      	ldr	r2, [r3, #0]
 1000e16:	e7f9      	b.n	1000e0c <TIM_Cmd+0x24>
 1000e18:	2301      	movs	r3, #1
        if (TIMx < TIM8)
 1000e1a:	2c07      	cmp	r4, #7
 1000e1c:	d806      	bhi.n	1000e2c <TIM_Cmd+0x44>
            TIM_CTRL &= ~((((uint32_t)1) << TIM_CTRL_ENABLE) << TIMx * 4);
 1000e1e:	00a4      	lsls	r4, r4, #2
 1000e20:	40a3      	lsls	r3, r4
 1000e22:	4906      	ldr	r1, [pc, #24]	; (1000e3c <TIM_Cmd+0x54>)
 1000e24:	680a      	ldr	r2, [r1, #0]
            TIM_CTRL1 &= ~((((uint32_t)1) << TIM_CTRL_ENABLE) << 0);
 1000e26:	439a      	bics	r2, r3
 1000e28:	600a      	str	r2, [r1, #0]
}
 1000e2a:	e7f1      	b.n	1000e10 <TIM_Cmd+0x28>
            TIM_CTRL1 &= ~((((uint32_t)1) << TIM_CTRL_ENABLE) << 0);
 1000e2c:	4904      	ldr	r1, [pc, #16]	; (1000e40 <TIM_Cmd+0x58>)
 1000e2e:	680a      	ldr	r2, [r1, #0]
 1000e30:	e7f9      	b.n	1000e26 <TIM_Cmd+0x3e>
 1000e32:	46c0      	nop			; (mov r8, r8)
 1000e34:	010054fb 	.word	0x010054fb
 1000e38:	010054ca 	.word	0x010054ca
 1000e3c:	000f0c48 	.word	0x000f0c48
 1000e40:	000f0c4c 	.word	0x000f0c4c

01000e44 <TIM_ModeConfig>:

void TIM_ModeConfig(TIM_NumTypeDef TIMx, TIM_ModeTypeDef TIM_Mode)
{
 1000e44:	b570      	push	{r4, r5, r6, lr}
 1000e46:	0004      	movs	r4, r0
 1000e48:	000d      	movs	r5, r1
    _ASSERT(ISTIMERNUM(TIMx));
 1000e4a:	2808      	cmp	r0, #8
 1000e4c:	d904      	bls.n	1000e58 <TIM_ModeConfig+0x14>
 1000e4e:	4a14      	ldr	r2, [pc, #80]	; (1000ea0 <TIM_ModeConfig+0x5c>)
 1000e50:	2135      	movs	r1, #53	; 0x35
 1000e52:	4814      	ldr	r0, [pc, #80]	; (1000ea4 <TIM_ModeConfig+0x60>)
 1000e54:	f7ff fbd2 	bl	10005fc <_assert_handler>
    _ASSERT(IS_TIM_MODE(TIM_Mode));
 1000e58:	2d01      	cmp	r5, #1
 1000e5a:	d90e      	bls.n	1000e7a <TIM_ModeConfig+0x36>
 1000e5c:	4a10      	ldr	r2, [pc, #64]	; (1000ea0 <TIM_ModeConfig+0x5c>)
 1000e5e:	2136      	movs	r1, #54	; 0x36
 1000e60:	4810      	ldr	r0, [pc, #64]	; (1000ea4 <TIM_ModeConfig+0x60>)
 1000e62:	f7ff fbcb 	bl	10005fc <_assert_handler>
 1000e66:	2304      	movs	r3, #4
        else
            TIM_CTRL1 |= ((((uint32_t)1) << TIM_CTRL_MODE) << 0);
    }
    else
    {
        if (TIMx < TIM8)
 1000e68:	2c07      	cmp	r4, #7
 1000e6a:	d815      	bhi.n	1000e98 <TIM_ModeConfig+0x54>
            TIM_CTRL &= ~((((uint32_t)1) << TIM_CTRL_MODE) << TIMx * 4);
 1000e6c:	00a4      	lsls	r4, r4, #2
 1000e6e:	40a3      	lsls	r3, r4
 1000e70:	490d      	ldr	r1, [pc, #52]	; (1000ea8 <TIM_ModeConfig+0x64>)
 1000e72:	680a      	ldr	r2, [r1, #0]
        else
            TIM_CTRL1 &= ~((((uint32_t)1) << TIM_CTRL_MODE) << 0);
 1000e74:	439a      	bics	r2, r3
 1000e76:	600a      	str	r2, [r1, #0]
    }
}
 1000e78:	e00a      	b.n	1000e90 <TIM_ModeConfig+0x4c>
    if (TIM_Mode == TIM_Mode_TIMER)
 1000e7a:	2d01      	cmp	r5, #1
 1000e7c:	d1f3      	bne.n	1000e66 <TIM_ModeConfig+0x22>
 1000e7e:	2304      	movs	r3, #4
        if (TIMx < TIM8)
 1000e80:	2c07      	cmp	r4, #7
 1000e82:	d806      	bhi.n	1000e92 <TIM_ModeConfig+0x4e>
            TIM_CTRL |= ((((uint32_t)1) << TIM_CTRL_MODE) << TIMx * 4);
 1000e84:	00a4      	lsls	r4, r4, #2
 1000e86:	40a3      	lsls	r3, r4
 1000e88:	4a07      	ldr	r2, [pc, #28]	; (1000ea8 <TIM_ModeConfig+0x64>)
 1000e8a:	6811      	ldr	r1, [r2, #0]
            TIM_CTRL1 |= ((((uint32_t)1) << TIM_CTRL_MODE) << 0);
 1000e8c:	430b      	orrs	r3, r1
 1000e8e:	6013      	str	r3, [r2, #0]
}
 1000e90:	bd70      	pop	{r4, r5, r6, pc}
            TIM_CTRL1 |= ((((uint32_t)1) << TIM_CTRL_MODE) << 0);
 1000e92:	4a06      	ldr	r2, [pc, #24]	; (1000eac <TIM_ModeConfig+0x68>)
 1000e94:	6811      	ldr	r1, [r2, #0]
 1000e96:	e7f9      	b.n	1000e8c <TIM_ModeConfig+0x48>
            TIM_CTRL1 &= ~((((uint32_t)1) << TIM_CTRL_MODE) << 0);
 1000e98:	4904      	ldr	r1, [pc, #16]	; (1000eac <TIM_ModeConfig+0x68>)
 1000e9a:	680a      	ldr	r2, [r1, #0]
 1000e9c:	e7ea      	b.n	1000e74 <TIM_ModeConfig+0x30>
 1000e9e:	46c0      	nop			; (mov r8, r8)
 1000ea0:	01005503 	.word	0x01005503
 1000ea4:	010054ca 	.word	0x010054ca
 1000ea8:	000f0c48 	.word	0x000f0c48
 1000eac:	000f0c4c 	.word	0x000f0c4c

01000eb0 <TIM_SetPeriod>:

void TIM_SetPeriod(TIM_NumTypeDef TIMx, uint32_t Period)
{
 1000eb0:	b570      	push	{r4, r5, r6, lr}
 1000eb2:	0004      	movs	r4, r0
 1000eb4:	000d      	movs	r5, r1
    _ASSERT(ISTIMERNUM(TIMx));
 1000eb6:	2808      	cmp	r0, #8
 1000eb8:	d904      	bls.n	1000ec4 <TIM_SetPeriod+0x14>
 1000eba:	4a05      	ldr	r2, [pc, #20]	; (1000ed0 <TIM_SetPeriod+0x20>)
 1000ebc:	214a      	movs	r1, #74	; 0x4a
 1000ebe:	4805      	ldr	r0, [pc, #20]	; (1000ed4 <TIM_SetPeriod+0x24>)
 1000ec0:	f7ff fb9c 	bl	10005fc <_assert_handler>

    TIM_PCNT(TIMx) = Period;
 1000ec4:	4b04      	ldr	r3, [pc, #16]	; (1000ed8 <TIM_SetPeriod+0x28>)
 1000ec6:	18e4      	adds	r4, r4, r3
 1000ec8:	00e4      	lsls	r4, r4, #3
 1000eca:	6025      	str	r5, [r4, #0]
}
 1000ecc:	bd70      	pop	{r4, r5, r6, pc}
 1000ece:	46c0      	nop			; (mov r8, r8)
 1000ed0:	01005512 	.word	0x01005512
 1000ed4:	010054ca 	.word	0x010054ca
 1000ed8:	0001e180 	.word	0x0001e180

01000edc <TIM_PWMInit>:

void TIM_PWMInit(PWM_InitTypeDef *PWM_init_struct)
{
    _ASSERT(ISTIMERNUM(PWM_init_struct->TIMx));
 1000edc:	7803      	ldrb	r3, [r0, #0]
{
 1000ede:	b510      	push	{r4, lr}
 1000ee0:	0004      	movs	r4, r0
    _ASSERT(ISTIMERNUM(PWM_init_struct->TIMx));
 1000ee2:	2b08      	cmp	r3, #8
 1000ee4:	d904      	bls.n	1000ef0 <TIM_PWMInit+0x14>
 1000ee6:	4a1e      	ldr	r2, [pc, #120]	; (1000f60 <TIM_PWMInit+0x84>)
 1000ee8:	2151      	movs	r1, #81	; 0x51
 1000eea:	481e      	ldr	r0, [pc, #120]	; (1000f64 <TIM_PWMInit+0x88>)
 1000eec:	f7ff fb86 	bl	10005fc <_assert_handler>

    TIM_Cmd(PWM_init_struct->TIMx, DISABLE);
 1000ef0:	2100      	movs	r1, #0
 1000ef2:	7820      	ldrb	r0, [r4, #0]
 1000ef4:	f7ff ff78 	bl	1000de8 <TIM_Cmd>
    TIM_PCNT(PWM_init_struct->TIMx) = PWM_init_struct->HighLevelPeriod;
 1000ef8:	7821      	ldrb	r1, [r4, #0]
 1000efa:	4b1b      	ldr	r3, [pc, #108]	; (1000f68 <TIM_PWMInit+0x8c>)
 1000efc:	18ca      	adds	r2, r1, r3
 1000efe:	68a3      	ldr	r3, [r4, #8]
 1000f00:	00d2      	lsls	r2, r2, #3
 1000f02:	6013      	str	r3, [r2, #0]
    TIM_NCNT(PWM_init_struct->TIMx) = PWM_init_struct->LowLevelPeriod;
 1000f04:	6863      	ldr	r3, [r4, #4]
 1000f06:	6053      	str	r3, [r2, #4]
    if (PWM_init_struct->SatrtLevel == OutputHigh)
 1000f08:	7b22      	ldrb	r2, [r4, #12]
 1000f0a:	2302      	movs	r3, #2
 1000f0c:	2a01      	cmp	r2, #1
 1000f0e:	d119      	bne.n	1000f44 <TIM_PWMInit+0x68>
    {
        if (PWM_init_struct->TIMx < TIM8)
 1000f10:	2907      	cmp	r1, #7
 1000f12:	d80d      	bhi.n	1000f30 <TIM_PWMInit+0x54>
            TIM_CTRL |= ((((uint32_t)1) << TIM_CTRL_START_LEVEL) << PWM_init_struct->TIMx * 4);
 1000f14:	008c      	lsls	r4, r1, #2
 1000f16:	40a3      	lsls	r3, r4
 1000f18:	4814      	ldr	r0, [pc, #80]	; (1000f6c <TIM_PWMInit+0x90>)
 1000f1a:	6802      	ldr	r2, [r0, #0]
 1000f1c:	431a      	orrs	r2, r3
            TIM_CTRL &= ~((((uint32_t)1) << TIM_CTRL_START_LEVEL) << PWM_init_struct->TIMx * 4);
        else
            TIM_CTRL1 &= ~((((uint32_t)1) << TIM_CTRL_START_LEVEL) << 0);
    }
    if (PWM_init_struct->TIMx < TIM8)
        TIM_CTRL &= ~((((uint32_t)1) << TIM_CTRL_MODE) << PWM_init_struct->TIMx * 4);
 1000f1e:	008b      	lsls	r3, r1, #2
 1000f20:	2104      	movs	r1, #4
 1000f22:	4099      	lsls	r1, r3
            TIM_CTRL &= ~((((uint32_t)1) << TIM_CTRL_START_LEVEL) << PWM_init_struct->TIMx * 4);
 1000f24:	6002      	str	r2, [r0, #0]
        TIM_CTRL &= ~((((uint32_t)1) << TIM_CTRL_MODE) << PWM_init_struct->TIMx * 4);
 1000f26:	4811      	ldr	r0, [pc, #68]	; (1000f6c <TIM_PWMInit+0x90>)
 1000f28:	6802      	ldr	r2, [r0, #0]
 1000f2a:	438a      	bics	r2, r1
 1000f2c:	6002      	str	r2, [r0, #0]
    else
        TIM_CTRL1 &= ~((((uint32_t)1) << TIM_CTRL_MODE) << 0);
}
 1000f2e:	bd10      	pop	{r4, pc}
            TIM_CTRL1 |= ((((uint32_t)1) << TIM_CTRL_START_LEVEL) << 0);
 1000f30:	490f      	ldr	r1, [pc, #60]	; (1000f70 <TIM_PWMInit+0x94>)
 1000f32:	680a      	ldr	r2, [r1, #0]
 1000f34:	4313      	orrs	r3, r2
 1000f36:	600b      	str	r3, [r1, #0]
        TIM_CTRL1 &= ~((((uint32_t)1) << TIM_CTRL_MODE) << 0);
 1000f38:	2104      	movs	r1, #4
 1000f3a:	4a0d      	ldr	r2, [pc, #52]	; (1000f70 <TIM_PWMInit+0x94>)
 1000f3c:	6813      	ldr	r3, [r2, #0]
 1000f3e:	438b      	bics	r3, r1
 1000f40:	6013      	str	r3, [r2, #0]
 1000f42:	e7f4      	b.n	1000f2e <TIM_PWMInit+0x52>
        if (PWM_init_struct->TIMx < TIM8)
 1000f44:	2907      	cmp	r1, #7
 1000f46:	d805      	bhi.n	1000f54 <TIM_PWMInit+0x78>
            TIM_CTRL &= ~((((uint32_t)1) << TIM_CTRL_START_LEVEL) << PWM_init_struct->TIMx * 4);
 1000f48:	008c      	lsls	r4, r1, #2
 1000f4a:	40a3      	lsls	r3, r4
 1000f4c:	4807      	ldr	r0, [pc, #28]	; (1000f6c <TIM_PWMInit+0x90>)
 1000f4e:	6802      	ldr	r2, [r0, #0]
 1000f50:	439a      	bics	r2, r3
 1000f52:	e7e4      	b.n	1000f1e <TIM_PWMInit+0x42>
            TIM_CTRL1 &= ~((((uint32_t)1) << TIM_CTRL_START_LEVEL) << 0);
 1000f54:	4906      	ldr	r1, [pc, #24]	; (1000f70 <TIM_PWMInit+0x94>)
 1000f56:	680a      	ldr	r2, [r1, #0]
 1000f58:	439a      	bics	r2, r3
 1000f5a:	600a      	str	r2, [r1, #0]
 1000f5c:	e7ec      	b.n	1000f38 <TIM_PWMInit+0x5c>
 1000f5e:	46c0      	nop			; (mov r8, r8)
 1000f60:	01005520 	.word	0x01005520
 1000f64:	010054ca 	.word	0x010054ca
 1000f68:	0001e180 	.word	0x0001e180
 1000f6c:	000f0c48 	.word	0x000f0c48
 1000f70:	000f0c4c 	.word	0x000f0c4c

01000f74 <TIM_SetPWMPeriod>:

void TIM_SetPWMPeriod(TIM_NumTypeDef TIMx, uint32_t LowLevelPeriod, uint32_t HighLevelPeriod)
{
 1000f74:	b570      	push	{r4, r5, r6, lr}
 1000f76:	0004      	movs	r4, r0
 1000f78:	000d      	movs	r5, r1
 1000f7a:	0016      	movs	r6, r2
    _ASSERT(ISTIMERNUM(TIMx));
 1000f7c:	2808      	cmp	r0, #8
 1000f7e:	d904      	bls.n	1000f8a <TIM_SetPWMPeriod+0x16>
 1000f80:	4a05      	ldr	r2, [pc, #20]	; (1000f98 <TIM_SetPWMPeriod+0x24>)
 1000f82:	216c      	movs	r1, #108	; 0x6c
 1000f84:	4805      	ldr	r0, [pc, #20]	; (1000f9c <TIM_SetPWMPeriod+0x28>)
 1000f86:	f7ff fb39 	bl	10005fc <_assert_handler>

    TIM_PCNT(TIMx) = HighLevelPeriod;
 1000f8a:	4b05      	ldr	r3, [pc, #20]	; (1000fa0 <TIM_SetPWMPeriod+0x2c>)
 1000f8c:	18e4      	adds	r4, r4, r3
 1000f8e:	00e4      	lsls	r4, r4, #3
 1000f90:	6026      	str	r6, [r4, #0]
    TIM_NCNT(TIMx) = LowLevelPeriod;
 1000f92:	6065      	str	r5, [r4, #4]
}
 1000f94:	bd70      	pop	{r4, r5, r6, pc}
 1000f96:	46c0      	nop			; (mov r8, r8)
 1000f98:	0100552c 	.word	0x0100552c
 1000f9c:	010054ca 	.word	0x010054ca
 1000fa0:	0001e180 	.word	0x0001e180

01000fa4 <TIM_PWMDifferential>:

void TIM_PWMDifferential(TIM_NumTypeDef TIMx, TIM_NumTypeDef TIMy, uint32_t LowLevelPeriod, uint32_t HighLevelPeriod)
{
 1000fa4:	b5f0      	push	{r4, r5, r6, r7, lr}
 1000fa6:	b085      	sub	sp, #20
 1000fa8:	0006      	movs	r6, r0
 1000faa:	000d      	movs	r5, r1
 1000fac:	0017      	movs	r7, r2
 1000fae:	9301      	str	r3, [sp, #4]
    _ASSERT(ISTIMERNUM(TIMx));
 1000fb0:	2808      	cmp	r0, #8
 1000fb2:	d904      	bls.n	1000fbe <TIM_PWMDifferential+0x1a>
 1000fb4:	4a20      	ldr	r2, [pc, #128]	; (1001038 <TIM_PWMDifferential+0x94>)
 1000fb6:	2174      	movs	r1, #116	; 0x74
 1000fb8:	4820      	ldr	r0, [pc, #128]	; (100103c <TIM_PWMDifferential+0x98>)
 1000fba:	f7ff fb1f 	bl	10005fc <_assert_handler>
    _ASSERT(ISTIMERNUM(TIMy));
 1000fbe:	2d08      	cmp	r5, #8
 1000fc0:	d904      	bls.n	1000fcc <TIM_PWMDifferential+0x28>
 1000fc2:	4a1d      	ldr	r2, [pc, #116]	; (1001038 <TIM_PWMDifferential+0x94>)
 1000fc4:	2175      	movs	r1, #117	; 0x75
 1000fc6:	481d      	ldr	r0, [pc, #116]	; (100103c <TIM_PWMDifferential+0x98>)
 1000fc8:	f7ff fb18 	bl	10005fc <_assert_handler>

    uint32_t TDifferentialConfig;

    TIM_CTRL &= ~((1 << (TIMy * 4)) | (1 << (TIMx * 4)));
 1000fcc:	4c1c      	ldr	r4, [pc, #112]	; (1001040 <TIM_PWMDifferential+0x9c>)
 1000fce:	00b1      	lsls	r1, r6, #2
 1000fd0:	6823      	ldr	r3, [r4, #0]
 1000fd2:	00aa      	lsls	r2, r5, #2
 1000fd4:	9302      	str	r3, [sp, #8]
 1000fd6:	00b3      	lsls	r3, r6, #2
 1000fd8:	9303      	str	r3, [sp, #12]
 1000fda:	2301      	movs	r3, #1
 1000fdc:	0018      	movs	r0, r3
 1000fde:	4088      	lsls	r0, r1
 1000fe0:	4684      	mov	ip, r0
 1000fe2:	0018      	movs	r0, r3
 1000fe4:	4661      	mov	r1, ip
 1000fe6:	4090      	lsls	r0, r2
 1000fe8:	4308      	orrs	r0, r1
 1000fea:	9902      	ldr	r1, [sp, #8]
 1000fec:	4381      	bics	r1, r0
 1000fee:	6021      	str	r1, [r4, #0]
    TIM_PCNT(TIMx) = HighLevelPeriod;
 1000ff0:	4914      	ldr	r1, [pc, #80]	; (1001044 <TIM_PWMDifferential+0xa0>)
 1000ff2:	9801      	ldr	r0, [sp, #4]
 1000ff4:	1876      	adds	r6, r6, r1
    TIM_NCNT(TIMx) = LowLevelPeriod;
    TIM_PCNT(TIMy) = LowLevelPeriod;
 1000ff6:	186d      	adds	r5, r5, r1
    TIM_PCNT(TIMx) = HighLevelPeriod;
 1000ff8:	00f6      	lsls	r6, r6, #3
    TIM_PCNT(TIMy) = LowLevelPeriod;
 1000ffa:	00ed      	lsls	r5, r5, #3
    TIM_PCNT(TIMx) = HighLevelPeriod;
 1000ffc:	6030      	str	r0, [r6, #0]
    TIM_NCNT(TIMx) = LowLevelPeriod;
 1000ffe:	6077      	str	r7, [r6, #4]
    TIM_PCNT(TIMy) = LowLevelPeriod;
 1001000:	602f      	str	r7, [r5, #0]
    TIM_NCNT(TIMy) = HighLevelPeriod;
 1001002:	6068      	str	r0, [r5, #4]
    TIM_CTRL &= ~(1 << (TIMx * 4 + 1));
 1001004:	001d      	movs	r5, r3
 1001006:	9903      	ldr	r1, [sp, #12]
 1001008:	6820      	ldr	r0, [r4, #0]
 100100a:	18c9      	adds	r1, r1, r3
 100100c:	408d      	lsls	r5, r1
 100100e:	43a8      	bics	r0, r5
    TDifferentialConfig = TIM_CTRL;
    TDifferentialConfig |= ((3 << (TIMy * 4)) | (1 << (TIMx * 4)));
 1001010:	2503      	movs	r5, #3
    TIM_CTRL &= ~(1 << (TIMx * 4 + 1));
 1001012:	6020      	str	r0, [r4, #0]
    TDifferentialConfig |= ((3 << (TIMy * 4)) | (1 << (TIMx * 4)));
 1001014:	4095      	lsls	r5, r2
 1001016:	4660      	mov	r0, ip
    TIM_CTRL |= 1 << (TIMy * 4 + 1);
 1001018:	18d2      	adds	r2, r2, r3
 100101a:	4093      	lsls	r3, r2
    TDifferentialConfig |= ((3 << (TIMy * 4)) | (1 << (TIMx * 4)));
 100101c:	4305      	orrs	r5, r0
    delay((LowLevelPeriod - 8) / 4);
 100101e:	0038      	movs	r0, r7
    TDifferentialConfig = TIM_CTRL;
 1001020:	6821      	ldr	r1, [r4, #0]
    delay((LowLevelPeriod - 8) / 4);
 1001022:	3808      	subs	r0, #8
    TDifferentialConfig |= ((3 << (TIMy * 4)) | (1 << (TIMx * 4)));
 1001024:	430d      	orrs	r5, r1
    TIM_CTRL |= 1 << (TIMy * 4 + 1);
 1001026:	6821      	ldr	r1, [r4, #0]
    delay((LowLevelPeriod - 8) / 4);
 1001028:	0880      	lsrs	r0, r0, #2
    TIM_CTRL |= 1 << (TIMy * 4 + 1);
 100102a:	430b      	orrs	r3, r1
 100102c:	6023      	str	r3, [r4, #0]
    delay((LowLevelPeriod - 8) / 4);
 100102e:	f7ff f98a 	bl	1000346 <delay>
    TIM_CTRL = TDifferentialConfig;
 1001032:	6025      	str	r5, [r4, #0]
}
 1001034:	b005      	add	sp, #20
 1001036:	bdf0      	pop	{r4, r5, r6, r7, pc}
 1001038:	0100553d 	.word	0x0100553d
 100103c:	010054ca 	.word	0x010054ca
 1001040:	000f0c48 	.word	0x000f0c48
 1001044:	0001e180 	.word	0x0001e180

01001048 <IPC_have_data>:

uint8_t ipcrecbuf[IPCREVSIZE] = {0};
uint8_t bt_lpm_mode=0;

Boolean IPC_have_data()
{
 1001048:	b510      	push	{r4, lr}
    return HR_REG_16BIT(&IpcRx->ReadPtr) != HR_REG_16BIT(&IpcRx->WrtiePtr) ? TRUE : FALSE;
 100104a:	4b08      	ldr	r3, [pc, #32]	; (100106c <IPC_have_data+0x24>)
 100104c:	681a      	ldr	r2, [r3, #0]
 100104e:	7914      	ldrb	r4, [r2, #4]
 1001050:	7950      	ldrb	r0, [r2, #5]
 1001052:	7991      	ldrb	r1, [r2, #6]
 1001054:	79d3      	ldrb	r3, [r2, #7]
 1001056:	0200      	lsls	r0, r0, #8
 1001058:	021b      	lsls	r3, r3, #8
 100105a:	4320      	orrs	r0, r4
 100105c:	430b      	orrs	r3, r1
 100105e:	b21b      	sxth	r3, r3
 1001060:	b200      	sxth	r0, r0
 1001062:	1ac0      	subs	r0, r0, r3
 1001064:	1e43      	subs	r3, r0, #1
 1001066:	4198      	sbcs	r0, r3
 1001068:	b2c0      	uxtb	r0, r0
}
 100106a:	bd10      	pop	{r4, pc}
 100106c:	00020000 	.word	0x00020000

01001070 <IPC_get_available_size>:

uint16_t IPC_get_available_size()
{
 1001070:	b570      	push	{r4, r5, r6, lr}
	uint16_t retLen=0;
    if(bt_lpm_mode==1)
 1001072:	4c1c      	ldr	r4, [pc, #112]	; (10010e4 <IPC_get_available_size+0x74>)
 1001074:	7822      	ldrb	r2, [r4, #0]
 1001076:	2a01      	cmp	r2, #1
 1001078:	d109      	bne.n	100108e <IPC_get_available_size+0x1e>
    {
        WAKEUP_BT |= (1 << WAKEUP_BT_FLAG);
 100107a:	2304      	movs	r3, #4
 100107c:	491a      	ldr	r1, [pc, #104]	; (10010e8 <IPC_get_available_size+0x78>)
 100107e:	7808      	ldrb	r0, [r1, #0]
 1001080:	4303      	orrs	r3, r0
 1001082:	700b      	strb	r3, [r1, #0]
        IPC_HOLD_BT  = 1;
 1001084:	4b19      	ldr	r3, [pc, #100]	; (10010ec <IPC_get_available_size+0x7c>)
        delay_ms(10);
 1001086:	200a      	movs	r0, #10
        IPC_HOLD_BT  = 1;
 1001088:	701a      	strb	r2, [r3, #0]
        delay_ms(10);
 100108a:	f7ff fe71 	bl	1000d70 <delay_ms>
    }
    uint16_t readtx = HR_REG_16BIT(&IpcTx->ReadPtr);
 100108e:	4b18      	ldr	r3, [pc, #96]	; (10010f0 <IPC_get_available_size+0x80>)
 1001090:	681a      	ldr	r2, [r3, #0]
 1001092:	7911      	ldrb	r1, [r2, #4]
 1001094:	7950      	ldrb	r0, [r2, #5]
    uint16_t wrtptr = HR_REG_16BIT(&IpcTx->WrtiePtr);
 1001096:	7993      	ldrb	r3, [r2, #6]
    uint16_t readtx = HR_REG_16BIT(&IpcTx->ReadPtr);
 1001098:	0200      	lsls	r0, r0, #8
 100109a:	4301      	orrs	r1, r0
    uint16_t wrtptr = HR_REG_16BIT(&IpcTx->WrtiePtr);
 100109c:	79d0      	ldrb	r0, [r2, #7]
    uint16_t ipcendaddr = HR_REG_16BIT(&IpcTx->IpcEndAddr);
 100109e:	7896      	ldrb	r6, [r2, #2]
    uint16_t wrtptr = HR_REG_16BIT(&IpcTx->WrtiePtr);
 10010a0:	0200      	lsls	r0, r0, #8
 10010a2:	4318      	orrs	r0, r3
    uint16_t ipcendaddr = HR_REG_16BIT(&IpcTx->IpcEndAddr);
 10010a4:	78d3      	ldrb	r3, [r2, #3]
    uint16_t ipcstartaddr = HR_REG_16BIT(&IpcTx->IpcStartAddr);
 10010a6:	7815      	ldrb	r5, [r2, #0]
 10010a8:	7852      	ldrb	r2, [r2, #1]
    uint16_t ipcendaddr = HR_REG_16BIT(&IpcTx->IpcEndAddr);
 10010aa:	b2f6      	uxtb	r6, r6
 10010ac:	b2db      	uxtb	r3, r3
    uint16_t ipcstartaddr = HR_REG_16BIT(&IpcTx->IpcStartAddr);
 10010ae:	b2ed      	uxtb	r5, r5
 10010b0:	b2d2      	uxtb	r2, r2

    if (readtx > wrtptr)
 10010b2:	4281      	cmp	r1, r0
 10010b4:	d90d      	bls.n	10010d2 <IPC_get_available_size+0x62>
    {
        retLen = readtx - wrtptr;
 10010b6:	1a08      	subs	r0, r1, r0
    }
    else
    {
        retLen = ((ipcendaddr - ipcstartaddr + 1) - (readtx - wrtptr));
    }
    if(bt_lpm_mode==1)
 10010b8:	7823      	ldrb	r3, [r4, #0]
        retLen = ((ipcendaddr - ipcstartaddr + 1) - (readtx - wrtptr));
 10010ba:	b280      	uxth	r0, r0
    if(bt_lpm_mode==1)
 10010bc:	2b01      	cmp	r3, #1
 10010be:	d107      	bne.n	10010d0 <IPC_get_available_size+0x60>
    {
        IPC_HOLD_BT = 0;
 10010c0:	2200      	movs	r2, #0
        WAKEUP_BT &= ~(1 << WAKEUP_BT_FLAG);
 10010c2:	2104      	movs	r1, #4
        IPC_HOLD_BT = 0;
 10010c4:	4b09      	ldr	r3, [pc, #36]	; (10010ec <IPC_get_available_size+0x7c>)
 10010c6:	701a      	strb	r2, [r3, #0]
        WAKEUP_BT &= ~(1 << WAKEUP_BT_FLAG);
 10010c8:	4a07      	ldr	r2, [pc, #28]	; (10010e8 <IPC_get_available_size+0x78>)
 10010ca:	7813      	ldrb	r3, [r2, #0]
 10010cc:	438b      	bics	r3, r1
 10010ce:	7013      	strb	r3, [r2, #0]
    }
    return retLen;
}
 10010d0:	bd70      	pop	{r4, r5, r6, pc}
    uint16_t ipcendaddr = HR_REG_16BIT(&IpcTx->IpcEndAddr);
 10010d2:	021b      	lsls	r3, r3, #8
 10010d4:	4333      	orrs	r3, r6
        retLen = ((ipcendaddr - ipcstartaddr + 1) - (readtx - wrtptr));
 10010d6:	18c3      	adds	r3, r0, r3
    uint16_t ipcstartaddr = HR_REG_16BIT(&IpcTx->IpcStartAddr);
 10010d8:	0210      	lsls	r0, r2, #8
        retLen = ((ipcendaddr - ipcstartaddr + 1) - (readtx - wrtptr));
 10010da:	3301      	adds	r3, #1
    uint16_t ipcstartaddr = HR_REG_16BIT(&IpcTx->IpcStartAddr);
 10010dc:	4328      	orrs	r0, r5
        retLen = ((ipcendaddr - ipcstartaddr + 1) - (readtx - wrtptr));
 10010de:	1a18      	subs	r0, r3, r0
 10010e0:	1a40      	subs	r0, r0, r1
 10010e2:	e7e9      	b.n	10010b8 <IPC_get_available_size+0x48>
 10010e4:	00020244 	.word	0x00020244
 10010e8:	000f853c 	.word	0x000f853c
 10010ec:	000c4fef 	.word	0x000c4fef
 10010f0:	00020004 	.word	0x00020004

010010f4 <IPC_TxData>:

void IPC_TxData(HCI_TypeDef *IpcData)
{
 10010f4:	b5f8      	push	{r3, r4, r5, r6, r7, lr}
	#ifdef IPC_DEBUG
	PrintHCIPack(IpcData,"tx");
	#endif
    if(bt_lpm_mode==1)
 10010f6:	4b29      	ldr	r3, [pc, #164]	; (100119c <IPC_TxData+0xa8>)
{
 10010f8:	0004      	movs	r4, r0
    if(bt_lpm_mode==1)
 10010fa:	781a      	ldrb	r2, [r3, #0]
 10010fc:	2a01      	cmp	r2, #1
 10010fe:	d109      	bne.n	1001114 <IPC_TxData+0x20>
    {
        WAKEUP_BT |= (1 << WAKEUP_BT_FLAG);
 1001100:	2304      	movs	r3, #4
 1001102:	4927      	ldr	r1, [pc, #156]	; (10011a0 <IPC_TxData+0xac>)
 1001104:	7808      	ldrb	r0, [r1, #0]
 1001106:	4303      	orrs	r3, r0
 1001108:	700b      	strb	r3, [r1, #0]
        IPC_HOLD_BT  = 1;
 100110a:	4b26      	ldr	r3, [pc, #152]	; (10011a4 <IPC_TxData+0xb0>)
        delay_ms(10);
 100110c:	200a      	movs	r0, #10
        IPC_HOLD_BT  = 1;
 100110e:	701a      	strb	r2, [r3, #0]
        delay_ms(10);
 1001110:	f7ff fe2e 	bl	1000d70 <delay_ms>
    }
    uint16_t Wptr  = HR_REG_16BIT(&IpcTx->WrtiePtr);
 1001114:	4f24      	ldr	r7, [pc, #144]	; (10011a8 <IPC_TxData+0xb4>)
 1001116:	683a      	ldr	r2, [r7, #0]
 1001118:	7991      	ldrb	r1, [r2, #6]
 100111a:	79d3      	ldrb	r3, [r2, #7]
    uint16_t Len   = IpcData->DataLen + 3;
 100111c:	78a2      	ldrb	r2, [r4, #2]
    uint16_t Wptr  = HR_REG_16BIT(&IpcTx->WrtiePtr);
 100111e:	021b      	lsls	r3, r3, #8
 1001120:	430b      	orrs	r3, r1
    uint8_t *Rptr = (uint8_t *)IpcData;
    while (Len--)
 1001122:	0021      	movs	r1, r4
    uint16_t Len   = IpcData->DataLen + 3;
 1001124:	3203      	adds	r2, #3
    while (Len--)
 1001126:	3a01      	subs	r2, #1
 1001128:	4820      	ldr	r0, [pc, #128]	; (10011ac <IPC_TxData+0xb8>)
 100112a:	b292      	uxth	r2, r2
 100112c:	4282      	cmp	r2, r0
 100112e:	d111      	bne.n	1001154 <IPC_TxData+0x60>
        RB_UPDATE_PTR(Wptr, HR_REG_16BIT(&IpcTx->IpcStartAddr),  HR_REG_16BIT(&IpcTx->IpcEndAddr));
        if (Len == IpcData->DataLen)
        Rptr = IpcData->p_data;
    }

    HW_REG_16BIT(&IpcTx->WrtiePtr, (uint32_t)Wptr);
 1001130:	683a      	ldr	r2, [r7, #0]
 1001132:	b2d9      	uxtb	r1, r3
 1001134:	0a1b      	lsrs	r3, r3, #8
 1001136:	7191      	strb	r1, [r2, #6]
 1001138:	71d3      	strb	r3, [r2, #7]
    if(bt_lpm_mode==1)
 100113a:	4b18      	ldr	r3, [pc, #96]	; (100119c <IPC_TxData+0xa8>)
 100113c:	781b      	ldrb	r3, [r3, #0]
 100113e:	2b01      	cmp	r3, #1
 1001140:	d107      	bne.n	1001152 <IPC_TxData+0x5e>
    {
        IPC_HOLD_BT = 0;
 1001142:	2200      	movs	r2, #0
        WAKEUP_BT &= ~(1 << WAKEUP_BT_FLAG);
 1001144:	2104      	movs	r1, #4
        IPC_HOLD_BT = 0;
 1001146:	4b17      	ldr	r3, [pc, #92]	; (10011a4 <IPC_TxData+0xb0>)
 1001148:	701a      	strb	r2, [r3, #0]
        WAKEUP_BT &= ~(1 << WAKEUP_BT_FLAG);
 100114a:	4a15      	ldr	r2, [pc, #84]	; (10011a0 <IPC_TxData+0xac>)
 100114c:	7813      	ldrb	r3, [r2, #0]
 100114e:	438b      	bics	r3, r1
 1001150:	7013      	strb	r3, [r2, #0]
    }
}
 1001152:	bdf8      	pop	{r3, r4, r5, r6, r7, pc}
        HW_IPC_REG_8BIT(Wptr, *Rptr++);
 1001154:	20c0      	movs	r0, #192	; 0xc0
 1001156:	780e      	ldrb	r6, [r1, #0]
 1001158:	0300      	lsls	r0, r0, #12
 100115a:	4318      	orrs	r0, r3
 100115c:	7006      	strb	r6, [r0, #0]
        RB_UPDATE_PTR(Wptr, HR_REG_16BIT(&IpcTx->IpcStartAddr),  HR_REG_16BIT(&IpcTx->IpcEndAddr));
 100115e:	683e      	ldr	r6, [r7, #0]
 1001160:	78b0      	ldrb	r0, [r6, #2]
 1001162:	4684      	mov	ip, r0
 1001164:	4665      	mov	r5, ip
 1001166:	78f0      	ldrb	r0, [r6, #3]
 1001168:	0200      	lsls	r0, r0, #8
 100116a:	4328      	orrs	r0, r5
 100116c:	4298      	cmp	r0, r3
 100116e:	d112      	bne.n	1001196 <IPC_TxData+0xa2>
 1001170:	7830      	ldrb	r0, [r6, #0]
 1001172:	7873      	ldrb	r3, [r6, #1]
 1001174:	021b      	lsls	r3, r3, #8
 1001176:	4303      	orrs	r3, r0
        if (Len == IpcData->DataLen)
 1001178:	78a0      	ldrb	r0, [r4, #2]
        HW_IPC_REG_8BIT(Wptr, *Rptr++);
 100117a:	3101      	adds	r1, #1
        if (Len == IpcData->DataLen)
 100117c:	4290      	cmp	r0, r2
 100117e:	d1d2      	bne.n	1001126 <IPC_TxData+0x32>
        Rptr = IpcData->p_data;
 1001180:	7920      	ldrb	r0, [r4, #4]
 1001182:	78e6      	ldrb	r6, [r4, #3]
 1001184:	7961      	ldrb	r1, [r4, #5]
 1001186:	0200      	lsls	r0, r0, #8
 1001188:	0409      	lsls	r1, r1, #16
 100118a:	4306      	orrs	r6, r0
 100118c:	430e      	orrs	r6, r1
 100118e:	79a1      	ldrb	r1, [r4, #6]
 1001190:	0609      	lsls	r1, r1, #24
 1001192:	4331      	orrs	r1, r6
 1001194:	e7c7      	b.n	1001126 <IPC_TxData+0x32>
        RB_UPDATE_PTR(Wptr, HR_REG_16BIT(&IpcTx->IpcStartAddr),  HR_REG_16BIT(&IpcTx->IpcEndAddr));
 1001196:	3301      	adds	r3, #1
 1001198:	b29b      	uxth	r3, r3
 100119a:	e7ed      	b.n	1001178 <IPC_TxData+0x84>
 100119c:	00020244 	.word	0x00020244
 10011a0:	000f853c 	.word	0x000f853c
 10011a4:	000c4fef 	.word	0x000c4fef
 10011a8:	00020004 	.word	0x00020004
 10011ac:	0000ffff 	.word	0x0000ffff

010011b0 <IPC_PutBtData>:

Boolean IPC_PutBtData(const void *buf, uint32_t size)
{
 10011b0:	b5f8      	push	{r3, r4, r5, r6, r7, lr}
    if (size == 0 || size > 258)
 10011b2:	2302      	movs	r3, #2
 10011b4:	1e4a      	subs	r2, r1, #1
 10011b6:	33ff      	adds	r3, #255	; 0xff
{
 10011b8:	0006      	movs	r6, r0
 10011ba:	000d      	movs	r5, r1
    {
        return FALSE;
 10011bc:	2000      	movs	r0, #0
    if (size == 0 || size > 258)
 10011be:	429a      	cmp	r2, r3
 10011c0:	d828      	bhi.n	1001214 <IPC_PutBtData+0x64>
    }
    if(bt_lpm_mode==1)
 10011c2:	4c20      	ldr	r4, [pc, #128]	; (1001244 <IPC_PutBtData+0x94>)
 10011c4:	7822      	ldrb	r2, [r4, #0]
 10011c6:	2a01      	cmp	r2, #1
 10011c8:	d109      	bne.n	10011de <IPC_PutBtData+0x2e>
    {
        WAKEUP_BT |= (1 << WAKEUP_BT_FLAG);
 10011ca:	491f      	ldr	r1, [pc, #124]	; (1001248 <IPC_PutBtData+0x98>)
 10011cc:	3bfd      	subs	r3, #253	; 0xfd
 10011ce:	7808      	ldrb	r0, [r1, #0]
 10011d0:	4303      	orrs	r3, r0
 10011d2:	700b      	strb	r3, [r1, #0]
        IPC_HOLD_BT  = 1;
 10011d4:	4b1d      	ldr	r3, [pc, #116]	; (100124c <IPC_PutBtData+0x9c>)
        delay_ms(10);
 10011d6:	200a      	movs	r0, #10
        IPC_HOLD_BT  = 1;
 10011d8:	701a      	strb	r2, [r3, #0]
        delay_ms(10);
 10011da:	f7ff fdc9 	bl	1000d70 <delay_ms>
 10011de:	0030      	movs	r0, r6
    }
    uint16_t Wptr  = HR_REG_16BIT(&IpcTx->WrtiePtr);
 10011e0:	4f1b      	ldr	r7, [pc, #108]	; (1001250 <IPC_PutBtData+0xa0>)
 10011e2:	1975      	adds	r5, r6, r5
 10011e4:	683a      	ldr	r2, [r7, #0]
 10011e6:	7991      	ldrb	r1, [r2, #6]
 10011e8:	79d3      	ldrb	r3, [r2, #7]
 10011ea:	021b      	lsls	r3, r3, #8
 10011ec:	430b      	orrs	r3, r1
    uint8_t *Rptr = (uint8_t *)buf;
    while (size--)
 10011ee:	4285      	cmp	r5, r0
 10011f0:	d111      	bne.n	1001216 <IPC_PutBtData+0x66>
    if(bt_lpm_mode==1)
    {
        IPC_HOLD_BT = 0;
        WAKEUP_BT &= ~(1 << WAKEUP_BT_FLAG);
    }
    return TRUE;
 10011f2:	2001      	movs	r0, #1
    HW_REG_16BIT(&IpcTx->WrtiePtr, (uint32_t)Wptr);
 10011f4:	683a      	ldr	r2, [r7, #0]
 10011f6:	b2d9      	uxtb	r1, r3
 10011f8:	0a1b      	lsrs	r3, r3, #8
 10011fa:	7191      	strb	r1, [r2, #6]
 10011fc:	71d3      	strb	r3, [r2, #7]
    if(bt_lpm_mode==1)
 10011fe:	7823      	ldrb	r3, [r4, #0]
 1001200:	4283      	cmp	r3, r0
 1001202:	d107      	bne.n	1001214 <IPC_PutBtData+0x64>
        IPC_HOLD_BT = 0;
 1001204:	2200      	movs	r2, #0
        WAKEUP_BT &= ~(1 << WAKEUP_BT_FLAG);
 1001206:	2104      	movs	r1, #4
        IPC_HOLD_BT = 0;
 1001208:	4b10      	ldr	r3, [pc, #64]	; (100124c <IPC_PutBtData+0x9c>)
 100120a:	701a      	strb	r2, [r3, #0]
        WAKEUP_BT &= ~(1 << WAKEUP_BT_FLAG);
 100120c:	4a0e      	ldr	r2, [pc, #56]	; (1001248 <IPC_PutBtData+0x98>)
 100120e:	7813      	ldrb	r3, [r2, #0]
 1001210:	438b      	bics	r3, r1
 1001212:	7013      	strb	r3, [r2, #0]
}
 1001214:	bdf8      	pop	{r3, r4, r5, r6, r7, pc}
        HW_IPC_REG_8BIT(Wptr, *Rptr++);
 1001216:	22c0      	movs	r2, #192	; 0xc0
 1001218:	7801      	ldrb	r1, [r0, #0]
 100121a:	0312      	lsls	r2, r2, #12
 100121c:	431a      	orrs	r2, r3
 100121e:	7011      	strb	r1, [r2, #0]
        RB_UPDATE_PTR(Wptr, HR_REG_16BIT(&IpcTx->IpcStartAddr),  HR_REG_16BIT(&IpcTx->IpcEndAddr));
 1001220:	6839      	ldr	r1, [r7, #0]
 1001222:	788a      	ldrb	r2, [r1, #2]
 1001224:	4694      	mov	ip, r2
 1001226:	4666      	mov	r6, ip
 1001228:	78ca      	ldrb	r2, [r1, #3]
 100122a:	0212      	lsls	r2, r2, #8
 100122c:	4332      	orrs	r2, r6
 100122e:	429a      	cmp	r2, r3
 1001230:	d105      	bne.n	100123e <IPC_PutBtData+0x8e>
 1001232:	780a      	ldrb	r2, [r1, #0]
 1001234:	784b      	ldrb	r3, [r1, #1]
 1001236:	021b      	lsls	r3, r3, #8
 1001238:	4313      	orrs	r3, r2
 100123a:	3001      	adds	r0, #1
 100123c:	e7d7      	b.n	10011ee <IPC_PutBtData+0x3e>
 100123e:	3301      	adds	r3, #1
 1001240:	b29b      	uxth	r3, r3
 1001242:	e7fa      	b.n	100123a <IPC_PutBtData+0x8a>
 1001244:	00020244 	.word	0x00020244
 1001248:	000f853c 	.word	0x000f853c
 100124c:	000c4fef 	.word	0x000c4fef
 1001250:	00020004 	.word	0x00020004

01001254 <IPC_ReadBtData>:

Boolean IPC_ReadBtData(HCI_TypeDef *IpcData)
{
 1001254:	b5f0      	push	{r4, r5, r6, r7, lr}
    if (HR_REG_16BIT(&IpcRx->ReadPtr) != HR_REG_16BIT(&IpcRx->WrtiePtr))
 1001256:	4d3b      	ldr	r5, [pc, #236]	; (1001344 <IPC_ReadBtData+0xf0>)
{
 1001258:	0001      	movs	r1, r0
    if (HR_REG_16BIT(&IpcRx->ReadPtr) != HR_REG_16BIT(&IpcRx->WrtiePtr))
 100125a:	682a      	ldr	r2, [r5, #0]
 100125c:	7916      	ldrb	r6, [r2, #4]
 100125e:	7953      	ldrb	r3, [r2, #5]
 1001260:	7990      	ldrb	r0, [r2, #6]
 1001262:	79d4      	ldrb	r4, [r2, #7]
 1001264:	021b      	lsls	r3, r3, #8
 1001266:	0224      	lsls	r4, r4, #8
 1001268:	4304      	orrs	r4, r0
 100126a:	4333      	orrs	r3, r6
		#endif
        return TRUE;
    }
    else
    {
        return FALSE;
 100126c:	2000      	movs	r0, #0
    if (HR_REG_16BIT(&IpcRx->ReadPtr) != HR_REG_16BIT(&IpcRx->WrtiePtr))
 100126e:	429c      	cmp	r4, r3
 1001270:	d03e      	beq.n	10012f0 <IPC_ReadBtData+0x9c>
        IpcData->type = HR_IPC_REG_8BIT(Rptr);
 1001272:	26c0      	movs	r6, #192	; 0xc0
 1001274:	0336      	lsls	r6, r6, #12
 1001276:	0034      	movs	r4, r6
        uint16_t Rptr = HR_REG_16BIT(&IpcRx->ReadPtr);
 1001278:	7913      	ldrb	r3, [r2, #4]
 100127a:	7950      	ldrb	r0, [r2, #5]
 100127c:	0200      	lsls	r0, r0, #8
 100127e:	4318      	orrs	r0, r3
 1001280:	b200      	sxth	r0, r0
 1001282:	b283      	uxth	r3, r0
        IpcData->type = HR_IPC_REG_8BIT(Rptr);
 1001284:	431c      	orrs	r4, r3
 1001286:	7824      	ldrb	r4, [r4, #0]
 1001288:	700c      	strb	r4, [r1, #0]
        RB_UPDATE_PTR(Rptr, HR_REG_16BIT(&IpcRx->IpcStartAddr),  HR_REG_16BIT(&IpcRx->IpcEndAddr));
 100128a:	7897      	ldrb	r7, [r2, #2]
 100128c:	78d4      	ldrb	r4, [r2, #3]
 100128e:	0224      	lsls	r4, r4, #8
 1001290:	433c      	orrs	r4, r7
 1001292:	b224      	sxth	r4, r4
 1001294:	42a0      	cmp	r0, r4
 1001296:	d12c      	bne.n	10012f2 <IPC_ReadBtData+0x9e>
 1001298:	7810      	ldrb	r0, [r2, #0]
 100129a:	7853      	ldrb	r3, [r2, #1]
 100129c:	021b      	lsls	r3, r3, #8
 100129e:	4303      	orrs	r3, r0
        IpcData->opcode = HR_IPC_REG_8BIT(Rptr);
 10012a0:	431e      	orrs	r6, r3
 10012a2:	7830      	ldrb	r0, [r6, #0]
 10012a4:	7048      	strb	r0, [r1, #1]
        RB_UPDATE_PTR(Rptr, HR_REG_16BIT(&IpcRx->IpcStartAddr),  HR_REG_16BIT(&IpcRx->IpcEndAddr));
 10012a6:	7894      	ldrb	r4, [r2, #2]
 10012a8:	78d0      	ldrb	r0, [r2, #3]
 10012aa:	0200      	lsls	r0, r0, #8
 10012ac:	4320      	orrs	r0, r4
 10012ae:	4298      	cmp	r0, r3
 10012b0:	d122      	bne.n	10012f8 <IPC_ReadBtData+0xa4>
 10012b2:	7810      	ldrb	r0, [r2, #0]
 10012b4:	7853      	ldrb	r3, [r2, #1]
 10012b6:	021b      	lsls	r3, r3, #8
 10012b8:	4303      	orrs	r3, r0
        IpcData->DataLen = HR_IPC_REG_8BIT(Rptr);
 10012ba:	20c0      	movs	r0, #192	; 0xc0
 10012bc:	0300      	lsls	r0, r0, #12
 10012be:	4318      	orrs	r0, r3
 10012c0:	7800      	ldrb	r0, [r0, #0]
 10012c2:	7088      	strb	r0, [r1, #2]
        RB_UPDATE_PTR(Rptr, HR_REG_16BIT(&IpcRx->IpcStartAddr),  HR_REG_16BIT(&IpcRx->IpcEndAddr));
 10012c4:	7894      	ldrb	r4, [r2, #2]
 10012c6:	78d0      	ldrb	r0, [r2, #3]
 10012c8:	0200      	lsls	r0, r0, #8
 10012ca:	4320      	orrs	r0, r4
 10012cc:	4298      	cmp	r0, r3
 10012ce:	d116      	bne.n	10012fe <IPC_ReadBtData+0xaa>
 10012d0:	7810      	ldrb	r0, [r2, #0]
 10012d2:	7853      	ldrb	r3, [r2, #1]
 10012d4:	021b      	lsls	r3, r3, #8
 10012d6:	4303      	orrs	r3, r0
            IpcData->p_data[i] = HR_IPC_REG_8BIT(Rptr);
 10012d8:	24c0      	movs	r4, #192	; 0xc0
{
 10012da:	2200      	movs	r2, #0
            IpcData->p_data[i] = HR_IPC_REG_8BIT(Rptr);
 10012dc:	0324      	lsls	r4, r4, #12
        for (uint8_t i = 0; i < IpcData->DataLen; i++)
 10012de:	7888      	ldrb	r0, [r1, #2]
 10012e0:	4290      	cmp	r0, r2
 10012e2:	d80f      	bhi.n	1001304 <IPC_ReadBtData+0xb0>
        return TRUE;
 10012e4:	2001      	movs	r0, #1
        HW_REG_16BIT(&IpcRx->ReadPtr, (uint32_t)Rptr);
 10012e6:	682a      	ldr	r2, [r5, #0]
 10012e8:	b2d9      	uxtb	r1, r3
 10012ea:	0a1b      	lsrs	r3, r3, #8
 10012ec:	7111      	strb	r1, [r2, #4]
 10012ee:	7153      	strb	r3, [r2, #5]
    }
}
 10012f0:	bdf0      	pop	{r4, r5, r6, r7, pc}
        RB_UPDATE_PTR(Rptr, HR_REG_16BIT(&IpcRx->IpcStartAddr),  HR_REG_16BIT(&IpcRx->IpcEndAddr));
 10012f2:	3301      	adds	r3, #1
 10012f4:	b29b      	uxth	r3, r3
 10012f6:	e7d3      	b.n	10012a0 <IPC_ReadBtData+0x4c>
        RB_UPDATE_PTR(Rptr, HR_REG_16BIT(&IpcRx->IpcStartAddr),  HR_REG_16BIT(&IpcRx->IpcEndAddr));
 10012f8:	3301      	adds	r3, #1
 10012fa:	b29b      	uxth	r3, r3
 10012fc:	e7dd      	b.n	10012ba <IPC_ReadBtData+0x66>
        RB_UPDATE_PTR(Rptr, HR_REG_16BIT(&IpcRx->IpcStartAddr),  HR_REG_16BIT(&IpcRx->IpcEndAddr));
 10012fe:	3301      	adds	r3, #1
 1001300:	b29b      	uxth	r3, r3
 1001302:	e7e9      	b.n	10012d8 <IPC_ReadBtData+0x84>
            IpcData->p_data[i] = HR_IPC_REG_8BIT(Rptr);
 1001304:	0020      	movs	r0, r4
 1001306:	790f      	ldrb	r7, [r1, #4]
 1001308:	4318      	orrs	r0, r3
 100130a:	7806      	ldrb	r6, [r0, #0]
 100130c:	78c8      	ldrb	r0, [r1, #3]
 100130e:	023f      	lsls	r7, r7, #8
 1001310:	4307      	orrs	r7, r0
 1001312:	7948      	ldrb	r0, [r1, #5]
 1001314:	0400      	lsls	r0, r0, #16
 1001316:	4307      	orrs	r7, r0
 1001318:	7988      	ldrb	r0, [r1, #6]
 100131a:	0600      	lsls	r0, r0, #24
 100131c:	4338      	orrs	r0, r7
 100131e:	5486      	strb	r6, [r0, r2]
            RB_UPDATE_PTR(Rptr, HR_REG_16BIT(&IpcRx->IpcStartAddr),  HR_REG_16BIT(&IpcRx->IpcEndAddr));
 1001320:	682e      	ldr	r6, [r5, #0]
 1001322:	78b7      	ldrb	r7, [r6, #2]
 1001324:	78f0      	ldrb	r0, [r6, #3]
 1001326:	0200      	lsls	r0, r0, #8
 1001328:	4338      	orrs	r0, r7
 100132a:	4298      	cmp	r0, r3
 100132c:	d106      	bne.n	100133c <IPC_ReadBtData+0xe8>
 100132e:	7830      	ldrb	r0, [r6, #0]
 1001330:	7873      	ldrb	r3, [r6, #1]
 1001332:	021b      	lsls	r3, r3, #8
 1001334:	4303      	orrs	r3, r0
        for (uint8_t i = 0; i < IpcData->DataLen; i++)
 1001336:	3201      	adds	r2, #1
 1001338:	b2d2      	uxtb	r2, r2
 100133a:	e7d0      	b.n	10012de <IPC_ReadBtData+0x8a>
            RB_UPDATE_PTR(Rptr, HR_REG_16BIT(&IpcRx->IpcStartAddr),  HR_REG_16BIT(&IpcRx->IpcEndAddr));
 100133c:	3301      	adds	r3, #1
 100133e:	b29b      	uxth	r3, r3
 1001340:	e7f9      	b.n	1001336 <IPC_ReadBtData+0xe2>
 1001342:	46c0      	nop			; (mov r8, r8)
 1001344:	00020000 	.word	0x00020000

01001348 <IPC_GetBtData>:

Boolean IPC_GetBtData(void *buf, uint32_t *size)
{
 1001348:	b5f7      	push	{r0, r1, r2, r4, r5, r6, r7, lr}
 100134a:	9000      	str	r0, [sp, #0]
    uint32_t i = 0;
    uint16_t Rptr = HR_REG_16BIT(&IpcRx->ReadPtr);
    if (*size == 0)
    {
        *size = 0;
        return FALSE;
 100134c:	2000      	movs	r0, #0
    uint16_t Rptr = HR_REG_16BIT(&IpcRx->ReadPtr);
 100134e:	4d21      	ldr	r5, [pc, #132]	; (10013d4 <IPC_GetBtData+0x8c>)
{
 1001350:	000e      	movs	r6, r1
    uint16_t Rptr = HR_REG_16BIT(&IpcRx->ReadPtr);
 1001352:	682b      	ldr	r3, [r5, #0]
 1001354:	791f      	ldrb	r7, [r3, #4]
 1001356:	795c      	ldrb	r4, [r3, #5]
    if (*size == 0)
 1001358:	680b      	ldr	r3, [r1, #0]
    uint16_t Rptr = HR_REG_16BIT(&IpcRx->ReadPtr);
 100135a:	b2ff      	uxtb	r7, r7
 100135c:	b2e4      	uxtb	r4, r4
    if (*size == 0)
 100135e:	4283      	cmp	r3, r0
 1001360:	d019      	beq.n	1001396 <IPC_GetBtData+0x4e>
    }
    if (TRUE == IPC_have_data())
 1001362:	f7ff fe71 	bl	1001048 <IPC_have_data>
 1001366:	2801      	cmp	r0, #1
 1001368:	d131      	bne.n	10013ce <IPC_GetBtData+0x86>
    uint16_t Rptr = HR_REG_16BIT(&IpcRx->ReadPtr);
 100136a:	0224      	lsls	r4, r4, #8
 100136c:	9900      	ldr	r1, [sp, #0]
 100136e:	4327      	orrs	r7, r4
    {
        while (Rptr != HR_REG_16BIT(&IpcRx->WrtiePtr) && i < (*size))
 1001370:	9501      	str	r5, [sp, #4]
 1001372:	9b00      	ldr	r3, [sp, #0]
 1001374:	1acc      	subs	r4, r1, r3
 1001376:	9b01      	ldr	r3, [sp, #4]
 1001378:	681a      	ldr	r2, [r3, #0]
 100137a:	7993      	ldrb	r3, [r2, #6]
 100137c:	469c      	mov	ip, r3
 100137e:	4665      	mov	r5, ip
 1001380:	79d3      	ldrb	r3, [r2, #7]
 1001382:	021b      	lsls	r3, r3, #8
 1001384:	432b      	orrs	r3, r5
 1001386:	42bb      	cmp	r3, r7
 1001388:	d11c      	bne.n	10013c4 <IPC_GetBtData+0x7c>
        {
            ((uint8_t *)buf)[i++] = HR_IPC_REG_8BIT(Rptr);
            RB_UPDATE_PTR(Rptr, HR_REG_16BIT(&IpcRx->IpcStartAddr),  HR_REG_16BIT(&IpcRx->IpcEndAddr));
        }
        HW_REG_16BIT(&IpcRx->ReadPtr, (uint32_t)Rptr);
 100138a:	b2d9      	uxtb	r1, r3
 100138c:	0a1b      	lsrs	r3, r3, #8
 100138e:	b2db      	uxtb	r3, r3
 1001390:	7111      	strb	r1, [r2, #4]
 1001392:	7153      	strb	r3, [r2, #5]
        *size = i;
 1001394:	6034      	str	r4, [r6, #0]
    else
    {
        *size = 0;
        return FALSE;
    }
}
 1001396:	bdfe      	pop	{r1, r2, r3, r4, r5, r6, r7, pc}
            ((uint8_t *)buf)[i++] = HR_IPC_REG_8BIT(Rptr);
 1001398:	23c0      	movs	r3, #192	; 0xc0
 100139a:	031b      	lsls	r3, r3, #12
 100139c:	433b      	orrs	r3, r7
 100139e:	781b      	ldrb	r3, [r3, #0]
 10013a0:	700b      	strb	r3, [r1, #0]
            RB_UPDATE_PTR(Rptr, HR_REG_16BIT(&IpcRx->IpcStartAddr),  HR_REG_16BIT(&IpcRx->IpcEndAddr));
 10013a2:	9b01      	ldr	r3, [sp, #4]
 10013a4:	681a      	ldr	r2, [r3, #0]
 10013a6:	7894      	ldrb	r4, [r2, #2]
 10013a8:	78d3      	ldrb	r3, [r2, #3]
 10013aa:	021b      	lsls	r3, r3, #8
 10013ac:	4323      	orrs	r3, r4
 10013ae:	42bb      	cmp	r3, r7
 10013b0:	d105      	bne.n	10013be <IPC_GetBtData+0x76>
 10013b2:	7814      	ldrb	r4, [r2, #0]
 10013b4:	7857      	ldrb	r7, [r2, #1]
 10013b6:	023f      	lsls	r7, r7, #8
 10013b8:	4327      	orrs	r7, r4
 10013ba:	3101      	adds	r1, #1
 10013bc:	e7d9      	b.n	1001372 <IPC_GetBtData+0x2a>
 10013be:	3701      	adds	r7, #1
 10013c0:	b2bf      	uxth	r7, r7
 10013c2:	e7fa      	b.n	10013ba <IPC_GetBtData+0x72>
        while (Rptr != HR_REG_16BIT(&IpcRx->WrtiePtr) && i < (*size))
 10013c4:	6833      	ldr	r3, [r6, #0]
 10013c6:	429c      	cmp	r4, r3
 10013c8:	d3e6      	bcc.n	1001398 <IPC_GetBtData+0x50>
 10013ca:	003b      	movs	r3, r7
 10013cc:	e7dd      	b.n	100138a <IPC_GetBtData+0x42>
        *size = 0;
 10013ce:	2000      	movs	r0, #0
 10013d0:	6030      	str	r0, [r6, #0]
        return FALSE;
 10013d2:	e7e0      	b.n	1001396 <IPC_GetBtData+0x4e>
 10013d4:	00020000 	.word	0x00020000

010013d8 <_dma_wait>:
    DMA_START(ch)     = 0x80;
}

void __NOINLINE _dma_wait(int ch)
{
    while (!(DMA_STATUS(ch) & 1));
 10013d8:	4b03      	ldr	r3, [pc, #12]	; (10013e8 <_dma_wait+0x10>)
 10013da:	0200      	lsls	r0, r0, #8
 10013dc:	18c0      	adds	r0, r0, r3
 10013de:	2301      	movs	r3, #1
 10013e0:	6802      	ldr	r2, [r0, #0]
 10013e2:	421a      	tst	r2, r3
 10013e4:	d0fc      	beq.n	10013e0 <_dma_wait+0x8>
}
 10013e6:	4770      	bx	lr
 10013e8:	000f8810 	.word	0x000f8810

010013ec <_dmacopy>:

void _dmacopy(void *dest, void *src, int len)
{
 10013ec:	b510      	push	{r4, lr}
 10013ee:	0004      	movs	r4, r0
    _dma_start(DMACH_MEMCP, src, len, dest, len);
 10013f0:	0013      	movs	r3, r2
{
 10013f2:	0008      	movs	r0, r1
 10013f4:	0011      	movs	r1, r2
    _dma_start(DMACH_MEMCP, src, len, dest, len);
 10013f6:	0022      	movs	r2, r4
 10013f8:	f000 f916 	bl	1001628 <_dma_start.constprop.1>
    _dma_wait(DMACH_MEMCP);
 10013fc:	2006      	movs	r0, #6
 10013fe:	f7ff ffeb 	bl	10013d8 <_dma_wait>
}
 1001402:	bd10      	pop	{r4, pc}

01001404 <_download_btcode>:

void _download_btcode(const byte *btcode)
{
 1001404:	b5f7      	push	{r0, r1, r2, r4, r5, r6, r7, lr}
    int addr, len;
    btcode += 2;
    if (GETWORD(btcode) != 0x55aa)
 1001406:	7882      	ldrb	r2, [r0, #2]
 1001408:	78c3      	ldrb	r3, [r0, #3]
 100140a:	021b      	lsls	r3, r3, #8
 100140c:	4313      	orrs	r3, r2
 100140e:	4a2c      	ldr	r2, [pc, #176]	; (10014c0 <_download_btcode+0xbc>)
 1001410:	b21b      	sxth	r3, r3
 1001412:	4293      	cmp	r3, r2
 1001414:	d125      	bne.n	1001462 <_download_btcode+0x5e>
        return;
    btcode += 2;
    enable_clock(CLKCLS_BT);
    len = GETWORD(btcode);
    btcode += 2;
    BT_UCODE_LO   = 0;
 1001416:	2600      	movs	r6, #0
    SYSCTRL_CLK_CLS &= ~(1 << id);
 1001418:	4a2a      	ldr	r2, [pc, #168]	; (10014c4 <_download_btcode+0xc0>)
 100141a:	492b      	ldr	r1, [pc, #172]	; (10014c8 <_download_btcode+0xc4>)
 100141c:	6813      	ldr	r3, [r2, #0]
    BT_UCODE_HI   = 0;
    BT_UCODE_CTRL = 0x80;
 100141e:	4f2b      	ldr	r7, [pc, #172]	; (10014cc <_download_btcode+0xc8>)
 1001420:	400b      	ands	r3, r1
 1001422:	6013      	str	r3, [r2, #0]
    BT_UCODE_LO   = 0;
 1001424:	4b2a      	ldr	r3, [pc, #168]	; (10014d0 <_download_btcode+0xcc>)
    len = GETWORD(btcode);
 1001426:	7904      	ldrb	r4, [r0, #4]
 1001428:	7945      	ldrb	r5, [r0, #5]
    BT_UCODE_LO   = 0;
 100142a:	701e      	strb	r6, [r3, #0]
    BT_UCODE_HI   = 0;
 100142c:	4b29      	ldr	r3, [pc, #164]	; (10014d4 <_download_btcode+0xd0>)
    DMA_CONFIG(DMACH_MEMCP) = 8;
 100142e:	4a2a      	ldr	r2, [pc, #168]	; (10014d8 <_download_btcode+0xd4>)
    BT_UCODE_HI   = 0;
 1001430:	701e      	strb	r6, [r3, #0]
    BT_UCODE_CTRL = 0x80;
 1001432:	2380      	movs	r3, #128	; 0x80
    len = GETWORD(btcode);
 1001434:	022d      	lsls	r5, r5, #8
 1001436:	4325      	orrs	r5, r4
    BT_UCODE_CTRL = 0x80;
 1001438:	703b      	strb	r3, [r7, #0]
    btcode += 2;
 100143a:	1d84      	adds	r4, r0, #6
    DMA_CONFIG(DMACH_MEMCP) = 8;
 100143c:	3b78      	subs	r3, #120	; 0x78
 100143e:	7013      	strb	r3, [r2, #0]
    _dmacopy((byte *)&BT_UCODE_DATA, (byte *)btcode, len);
 1001440:	0021      	movs	r1, r4
 1001442:	002a      	movs	r2, r5
 1001444:	4825      	ldr	r0, [pc, #148]	; (10014dc <_download_btcode+0xd8>)
 1001446:	f7ff ffd1 	bl	10013ec <_dmacopy>
    BT_UCODE_CTRL = 0;
    btcode       += len;
    DMA_CONFIG(DMACH_MEMCP) = 0;
 100144a:	4a23      	ldr	r2, [pc, #140]	; (10014d8 <_download_btcode+0xd4>)
    BT_UCODE_CTRL = 0;
 100144c:	703e      	strb	r6, [r7, #0]
    btcode       += len;
 100144e:	1961      	adds	r1, r4, r5
    DMA_CONFIG(DMACH_MEMCP) = 0;
 1001450:	7016      	strb	r6, [r2, #0]

    while (GETWORD(btcode) == 0x55aa)
 1001452:	780a      	ldrb	r2, [r1, #0]
 1001454:	784b      	ldrb	r3, [r1, #1]
 1001456:	021b      	lsls	r3, r3, #8
 1001458:	4313      	orrs	r3, r2
 100145a:	4a19      	ldr	r2, [pc, #100]	; (10014c0 <_download_btcode+0xbc>)
 100145c:	b21b      	sxth	r3, r3
 100145e:	4293      	cmp	r3, r2
 1001460:	d000      	beq.n	1001464 <_download_btcode+0x60>
        {
          _dmacopy((byte *)addr, (byte *)btcode, len);
        }
        btcode += len;
    }
}
 1001462:	bdf7      	pop	{r0, r1, r2, r4, r5, r6, r7, pc}
        len  = GETWORD(btcode);
 1001464:	788b      	ldrb	r3, [r1, #2]
 1001466:	78cf      	ldrb	r7, [r1, #3]
        btcode += 2;
 1001468:	1d8d      	adds	r5, r1, #6
        len  = GETWORD(btcode);
 100146a:	023f      	lsls	r7, r7, #8
 100146c:	431f      	orrs	r7, r3
        addr = GETWORD(btcode) | 0xc0000;
 100146e:	790b      	ldrb	r3, [r1, #4]
 1001470:	794e      	ldrb	r6, [r1, #5]
 1001472:	0236      	lsls	r6, r6, #8
 1001474:	431e      	orrs	r6, r3
 1001476:	23c0      	movs	r3, #192	; 0xc0
 1001478:	031b      	lsls	r3, r3, #12
 100147a:	431e      	orrs	r6, r3
        if(addr==MEM_SPP_FLOWCTRL_FLAG_ADDR && len==0x0004)
 100147c:	4b18      	ldr	r3, [pc, #96]	; (10014e0 <_download_btcode+0xdc>)
 100147e:	429e      	cmp	r6, r3
 1001480:	d111      	bne.n	10014a6 <_download_btcode+0xa2>
 1001482:	2f04      	cmp	r7, #4
 1001484:	d119      	bne.n	10014ba <_download_btcode+0xb6>
            mem_spp_flowctrl_buf[0]=MEM_SPP_FLOWCTRL_FLAG_VALUE;
 1001486:	2301      	movs	r3, #1
 1001488:	ac01      	add	r4, sp, #4
 100148a:	7023      	strb	r3, [r4, #0]
            memcpy((byte*)&mem_spp_flowctrl_buf[1],btcode+1,3);
 100148c:	466b      	mov	r3, sp
 100148e:	3107      	adds	r1, #7
 1001490:	2203      	movs	r2, #3
 1001492:	1d58      	adds	r0, r3, #5
 1001494:	f002 fca4 	bl	1003de0 <memcpy>
            _dmacopy((byte *)addr, mem_spp_flowctrl_buf, len);
 1001498:	003a      	movs	r2, r7
 100149a:	0021      	movs	r1, r4
          _dmacopy((byte *)addr, (byte *)btcode, len);
 100149c:	0030      	movs	r0, r6
 100149e:	f7ff ffa5 	bl	10013ec <_dmacopy>
        btcode += len;
 10014a2:	19e9      	adds	r1, r5, r7
 10014a4:	e7d5      	b.n	1001452 <_download_btcode+0x4e>
        else if(addr==MEM_RFCOMM_LMP_DIS_FLAG_ADDR && len==0x0001)
 10014a6:	4b0f      	ldr	r3, [pc, #60]	; (10014e4 <_download_btcode+0xe0>)
 10014a8:	429e      	cmp	r6, r3
 10014aa:	d106      	bne.n	10014ba <_download_btcode+0xb6>
 10014ac:	2f01      	cmp	r7, #1
 10014ae:	d104      	bne.n	10014ba <_download_btcode+0xb6>
            mem_rfcomm_lmp_dis_flag=MEM_RFCOMM_LMP_DIS_FLAG_VALUE;
 10014b0:	2300      	movs	r3, #0
 10014b2:	a901      	add	r1, sp, #4
 10014b4:	700b      	strb	r3, [r1, #0]
            _dmacopy((byte *)addr, (byte *)&mem_rfcomm_lmp_dis_flag, len);
 10014b6:	003a      	movs	r2, r7
 10014b8:	e7f0      	b.n	100149c <_download_btcode+0x98>
          _dmacopy((byte *)addr, (byte *)btcode, len);
 10014ba:	003a      	movs	r2, r7
 10014bc:	0029      	movs	r1, r5
 10014be:	e7ed      	b.n	100149c <_download_btcode+0x98>
 10014c0:	000055aa 	.word	0x000055aa
 10014c4:	000f856c 	.word	0x000f856c
 10014c8:	ffffdfff 	.word	0xffffdfff
 10014cc:	000c8023 	.word	0x000c8023
 10014d0:	000c8024 	.word	0x000c8024
 10014d4:	000c8022 	.word	0x000c8022
 10014d8:	000f8e0c 	.word	0x000f8e0c
 10014dc:	000c8025 	.word	0x000c8025
 10014e0:	000c453d 	.word	0x000c453d
 10014e4:	000c4acf 	.word	0x000c4acf

010014e8 <erase_memory>:

//extern uint8_t BT_Wake;
extern const unsigned char bt_code[];

void erase_memory(void)
{
 10014e8:	b5f8      	push	{r3, r4, r5, r6, r7, lr}
 10014ea:	24c0      	movs	r4, #192	; 0xc0
    for (uint32_t i = 0; i < 0x1000; i++)
 10014ec:	27c1      	movs	r7, #193	; 0xc1
    {
        *(volatile uint8_t *)(0xc0000 + i) = 0;
        delay_us(1);
 10014ee:	2501      	movs	r5, #1
{
 10014f0:	0324      	lsls	r4, r4, #12
    for (uint32_t i = 0; i < 0x1000; i++)
 10014f2:	033f      	lsls	r7, r7, #12
        *(volatile uint8_t *)(0xc0000 + i) = 0;
 10014f4:	2600      	movs	r6, #0
        delay_us(1);
 10014f6:	0028      	movs	r0, r5
        *(volatile uint8_t *)(0xc0000 + i) = 0;
 10014f8:	7026      	strb	r6, [r4, #0]
        delay_us(1);
 10014fa:	f7ff fc33 	bl	1000d64 <delay_us>
 10014fe:	2380      	movs	r3, #128	; 0x80
 1001500:	01db      	lsls	r3, r3, #7
 1001502:	18e3      	adds	r3, r4, r3
        *(volatile uint8_t *)(0xc4000 + i) = 0;
 1001504:	701e      	strb	r6, [r3, #0]
        delay_us(1);
 1001506:	0028      	movs	r0, r5
 1001508:	3401      	adds	r4, #1
 100150a:	f7ff fc2b 	bl	1000d64 <delay_us>
    for (uint32_t i = 0; i < 0x1000; i++)
 100150e:	42bc      	cmp	r4, r7
 1001510:	d1f0      	bne.n	10014f4 <erase_memory+0xc>
    }
}
 1001512:	bdf8      	pop	{r3, r4, r5, r6, r7, pc}

01001514 <IpcInit>:

Boolean ipc_inited = FALSE;
void IpcInit(void)
{
#if (VERSIONS == EXIST_BT)
    if (ipc_inited == FALSE)
 1001514:	4b18      	ldr	r3, [pc, #96]	; (1001578 <IpcInit+0x64>)
{
 1001516:	b570      	push	{r4, r5, r6, lr}
    if (ipc_inited == FALSE)
 1001518:	781a      	ldrb	r2, [r3, #0]
 100151a:	2a00      	cmp	r2, #0
 100151c:	d12b      	bne.n	1001576 <IpcInit+0x62>
    NVIC_ICER = 1 << intid;
 100151e:	2180      	movs	r1, #128	; 0x80
    {
        disable_intr(INTR_BT);
        ipc_inited = TRUE;
 1001520:	2501      	movs	r5, #1
 1001522:	4a16      	ldr	r2, [pc, #88]	; (100157c <IpcInit+0x68>)
 1001524:	0109      	lsls	r1, r1, #4
 1001526:	6011      	str	r1, [r2, #0]
 1001528:	701d      	strb	r5, [r3, #0]
        SYSCTRL_ROM_SWITCH = 0x94;
 100152a:	2394      	movs	r3, #148	; 0x94
 100152c:	4c14      	ldr	r4, [pc, #80]	; (1001580 <IpcInit+0x6c>)
        //delay(10000);   //wait rom switch ok
        delay_ms(10);
 100152e:	200a      	movs	r0, #10
        SYSCTRL_ROM_SWITCH = 0x94;
 1001530:	7023      	strb	r3, [r4, #0]
        delay_ms(10);
 1001532:	f7ff fc1d 	bl	1000d70 <delay_ms>
        BT_RESET = 1;
 1001536:	4b13      	ldr	r3, [pc, #76]	; (1001584 <IpcInit+0x70>)
        //delay(10000);   //wait for reset ok
        delay_ms(1);
 1001538:	0028      	movs	r0, r5
        BT_RESET = 1;
 100153a:	701d      	strb	r5, [r3, #0]
        delay_ms(1);
 100153c:	f7ff fc18 	bl	1000d70 <delay_ms>
        while (!(BT_CONFIG & (1 << BT_INIT_FLAG)));
 1001540:	4b11      	ldr	r3, [pc, #68]	; (1001588 <IpcInit+0x74>)
 1001542:	781a      	ldrb	r2, [r3, #0]
 1001544:	b252      	sxtb	r2, r2
 1001546:	2a00      	cmp	r2, #0
 1001548:	dafb      	bge.n	1001542 <IpcInit+0x2e>
        BT_CONFIG &= (~(1 << BT_INIT_FLAG));
 100154a:	217f      	movs	r1, #127	; 0x7f
 100154c:	781a      	ldrb	r2, [r3, #0]
        lpm_bt_write(1, 0x00f20b0a);
 100154e:	2001      	movs	r0, #1
        BT_CONFIG &= (~(1 << BT_INIT_FLAG));
 1001550:	400a      	ands	r2, r1
 1001552:	701a      	strb	r2, [r3, #0]
        lpm_bt_write(1, 0x00f20b0a);
 1001554:	490d      	ldr	r1, [pc, #52]	; (100158c <IpcInit+0x78>)
 1001556:	f000 fb9b 	bl	1001c90 <lpm_bt_write>
        lpm_bt_write(0, 0x3084cf0f);
 100155a:	490d      	ldr	r1, [pc, #52]	; (1001590 <IpcInit+0x7c>)
 100155c:	2000      	movs	r0, #0
 100155e:	f000 fb97 	bl	1001c90 <lpm_bt_write>
        erase_memory();
 1001562:	f7ff ffc1 	bl	10014e8 <erase_memory>
        _download_btcode(bt_code);
 1001566:	480b      	ldr	r0, [pc, #44]	; (1001594 <IpcInit+0x80>)
 1001568:	f7ff ff4c 	bl	1001404 <_download_btcode>
        WAKEUP_BT = 0x9c;
 100156c:	239c      	movs	r3, #156	; 0x9c
        delay_ms(100);
 100156e:	2064      	movs	r0, #100	; 0x64
        WAKEUP_BT = 0x9c;
 1001570:	7023      	strb	r3, [r4, #0]
        delay_ms(100);
 1001572:	f7ff fbfd 	bl	1000d70 <delay_ms>
        BT_CONFIG &= (~(1 << BT_INIT_FLAG));
		lpm_bt_write(1, 0x00f20b0a);
        lpm_bt_write(0, 0x3084cf0f);
    }
#endif
}
 1001576:	bd70      	pop	{r4, r5, r6, pc}
 1001578:	00020245 	.word	0x00020245
 100157c:	e000e180 	.word	0xe000e180
 1001580:	000f853c 	.word	0x000f853c
 1001584:	000c8010 	.word	0x000c8010
 1001588:	000c8043 	.word	0x000c8043
 100158c:	00f20b0a 	.word	0x00f20b0a
 1001590:	3084cf0f 	.word	0x3084cf0f
 1001594:	0100425f 	.word	0x0100425f

01001598 <PrintHCIPack>:

//HCI
void PrintHCIPack(HCI_TypeDef *msg, const char *str)
{
 1001598:	b570      	push	{r4, r5, r6, lr}
 100159a:	000c      	movs	r4, r1
 100159c:	0005      	movs	r5, r0
    MyPrintf("M0 %s:\n", str);
 100159e:	481b      	ldr	r0, [pc, #108]	; (100160c <PrintHCIPack+0x74>)
 10015a0:	f7fe ff10 	bl	10003c4 <MyPrintf>
    MyPrintf("%s Type:%02x\n", str, msg->type);
 10015a4:	0021      	movs	r1, r4
 10015a6:	782a      	ldrb	r2, [r5, #0]
 10015a8:	4819      	ldr	r0, [pc, #100]	; (1001610 <PrintHCIPack+0x78>)
 10015aa:	f7fe ff0b 	bl	10003c4 <MyPrintf>
    MyPrintf("%s OPCode: %02x\n", str, msg->opcode);
 10015ae:	0021      	movs	r1, r4
 10015b0:	786a      	ldrb	r2, [r5, #1]
 10015b2:	4818      	ldr	r0, [pc, #96]	; (1001614 <PrintHCIPack+0x7c>)
 10015b4:	f7fe ff06 	bl	10003c4 <MyPrintf>
    MyPrintf("%s Length: %02x\n", str, msg->DataLen);
 10015b8:	0021      	movs	r1, r4
 10015ba:	78aa      	ldrb	r2, [r5, #2]
 10015bc:	4816      	ldr	r0, [pc, #88]	; (1001618 <PrintHCIPack+0x80>)
 10015be:	f7fe ff01 	bl	10003c4 <MyPrintf>
    MyPrintf("%s Data:\n", str);
 10015c2:	0021      	movs	r1, r4
 10015c4:	4815      	ldr	r0, [pc, #84]	; (100161c <PrintHCIPack+0x84>)
 10015c6:	f7fe fefd 	bl	10003c4 <MyPrintf>
    for (uint8_t cnt = 0; cnt < msg->DataLen; cnt++)
 10015ca:	2400      	movs	r4, #0
    {
        MyPrintf("%02x ", msg->p_data[cnt]);
        if ((cnt % 16) == 0&&cnt!=0)
 10015cc:	260f      	movs	r6, #15
    for (uint8_t cnt = 0; cnt < msg->DataLen; cnt++)
 10015ce:	78ab      	ldrb	r3, [r5, #2]
 10015d0:	42a3      	cmp	r3, r4
 10015d2:	d803      	bhi.n	10015dc <PrintHCIPack+0x44>
            MyPrintf("\n");
    }
    MyPrintf("\n");
 10015d4:	4812      	ldr	r0, [pc, #72]	; (1001620 <PrintHCIPack+0x88>)
 10015d6:	f7fe fef5 	bl	10003c4 <MyPrintf>
}
 10015da:	bd70      	pop	{r4, r5, r6, pc}
        MyPrintf("%02x ", msg->p_data[cnt]);
 10015dc:	792a      	ldrb	r2, [r5, #4]
 10015de:	78eb      	ldrb	r3, [r5, #3]
 10015e0:	0212      	lsls	r2, r2, #8
 10015e2:	431a      	orrs	r2, r3
 10015e4:	796b      	ldrb	r3, [r5, #5]
 10015e6:	480f      	ldr	r0, [pc, #60]	; (1001624 <PrintHCIPack+0x8c>)
 10015e8:	041b      	lsls	r3, r3, #16
 10015ea:	431a      	orrs	r2, r3
 10015ec:	79ab      	ldrb	r3, [r5, #6]
 10015ee:	061b      	lsls	r3, r3, #24
 10015f0:	4313      	orrs	r3, r2
 10015f2:	5d19      	ldrb	r1, [r3, r4]
 10015f4:	f7fe fee6 	bl	10003c4 <MyPrintf>
        if ((cnt % 16) == 0&&cnt!=0)
 10015f8:	4234      	tst	r4, r6
 10015fa:	d104      	bne.n	1001606 <PrintHCIPack+0x6e>
 10015fc:	2c00      	cmp	r4, #0
 10015fe:	d002      	beq.n	1001606 <PrintHCIPack+0x6e>
            MyPrintf("\n");
 1001600:	4807      	ldr	r0, [pc, #28]	; (1001620 <PrintHCIPack+0x88>)
 1001602:	f7fe fedf 	bl	10003c4 <MyPrintf>
    for (uint8_t cnt = 0; cnt < msg->DataLen; cnt++)
 1001606:	3401      	adds	r4, #1
 1001608:	b2e4      	uxtb	r4, r4
 100160a:	e7e0      	b.n	10015ce <PrintHCIPack+0x36>
 100160c:	01005551 	.word	0x01005551
 1001610:	01005559 	.word	0x01005559
 1001614:	01005567 	.word	0x01005567
 1001618:	01005578 	.word	0x01005578
 100161c:	01005589 	.word	0x01005589
 1001620:	01005858 	.word	0x01005858
 1001624:	01004259 	.word	0x01004259

01001628 <_dma_start.constprop.1>:
static void __NOINLINE _dma_start(int ch, const void *src, int srclen, void *dest, int dstlen)
 1001628:	b510      	push	{r4, lr}
    DMA_SRC_ADDR(ch)  = (int)src;
 100162a:	4c06      	ldr	r4, [pc, #24]	; (1001644 <_dma_start.constprop.1+0x1c>)
    DMA_LEN(ch)       = srclen << 16 | dstlen;
 100162c:	0409      	lsls	r1, r1, #16
    DMA_SRC_ADDR(ch)  = (int)src;
 100162e:	6020      	str	r0, [r4, #0]
    DMA_DEST_ADDR(ch) = (int)dest;
 1001630:	4805      	ldr	r0, [pc, #20]	; (1001648 <_dma_start.constprop.1+0x20>)
    DMA_LEN(ch)       = srclen << 16 | dstlen;
 1001632:	430b      	orrs	r3, r1
    DMA_DEST_ADDR(ch) = (int)dest;
 1001634:	6002      	str	r2, [r0, #0]
    DMA_LEN(ch)       = srclen << 16 | dstlen;
 1001636:	4a05      	ldr	r2, [pc, #20]	; (100164c <_dma_start.constprop.1+0x24>)
 1001638:	6013      	str	r3, [r2, #0]
    DMA_START(ch)     = 0x80;
 100163a:	2280      	movs	r2, #128	; 0x80
 100163c:	4b04      	ldr	r3, [pc, #16]	; (1001650 <_dma_start.constprop.1+0x28>)
 100163e:	701a      	strb	r2, [r3, #0]
}
 1001640:	bd10      	pop	{r4, pc}
 1001642:	46c0      	nop			; (mov r8, r8)
 1001644:	000f8e00 	.word	0x000f8e00
 1001648:	000f8e04 	.word	0x000f8e04
 100164c:	000f8e08 	.word	0x000f8e08
 1001650:	000f8e0f 	.word	0x000f8e0f

01001654 <UART_AutoFlowCtrlCmd>:

#define Set_RxITNum_Mask    0xff00
#define Statu_RxNum_Mask    (uint32_t)0xffff0000

void UART_AutoFlowCtrlCmd(UART_TypeDef UARTx, FunctionalState NewState)
{
 1001654:	b570      	push	{r4, r5, r6, lr}
 1001656:	0004      	movs	r4, r0
 1001658:	000d      	movs	r5, r1
    _ASSERT(IS_UART(UARTx));
 100165a:	2801      	cmp	r0, #1
 100165c:	d904      	bls.n	1001668 <UART_AutoFlowCtrlCmd+0x14>
 100165e:	4a0f      	ldr	r2, [pc, #60]	; (100169c <UART_AutoFlowCtrlCmd+0x48>)
 1001660:	211c      	movs	r1, #28
 1001662:	480f      	ldr	r0, [pc, #60]	; (10016a0 <UART_AutoFlowCtrlCmd+0x4c>)
 1001664:	f7fe ffca 	bl	10005fc <_assert_handler>

    if (NewState == ENABLE)
 1001668:	2d01      	cmp	r5, #1
 100166a:	d10c      	bne.n	1001686 <UART_AutoFlowCtrlCmd+0x32>
    {
        switch (UARTx)
 100166c:	2c00      	cmp	r4, #0
 100166e:	d002      	beq.n	1001676 <UART_AutoFlowCtrlCmd+0x22>
 1001670:	2c01      	cmp	r4, #1
 1001672:	d006      	beq.n	1001682 <UART_AutoFlowCtrlCmd+0x2e>
            UART1_CTRL &= (~FlowCtrl_Enable);
            break;
        }
    }
    return;
}
 1001674:	bd70      	pop	{r4, r5, r6, pc}
            UART0_CTRL |= FlowCtrl_Enable;
 1001676:	4a0b      	ldr	r2, [pc, #44]	; (10016a4 <UART_AutoFlowCtrlCmd+0x50>)
            UART1_CTRL |= FlowCtrl_Enable;
 1001678:	2310      	movs	r3, #16
 100167a:	6811      	ldr	r1, [r2, #0]
 100167c:	430b      	orrs	r3, r1
            UART1_CTRL &= (~FlowCtrl_Enable);
 100167e:	6013      	str	r3, [r2, #0]
    return;
 1001680:	e7f8      	b.n	1001674 <UART_AutoFlowCtrlCmd+0x20>
            UART1_CTRL |= FlowCtrl_Enable;
 1001682:	4a09      	ldr	r2, [pc, #36]	; (10016a8 <UART_AutoFlowCtrlCmd+0x54>)
 1001684:	e7f8      	b.n	1001678 <UART_AutoFlowCtrlCmd+0x24>
        switch (UARTx)
 1001686:	2c00      	cmp	r4, #0
 1001688:	d003      	beq.n	1001692 <UART_AutoFlowCtrlCmd+0x3e>
 100168a:	2c01      	cmp	r4, #1
 100168c:	d1f2      	bne.n	1001674 <UART_AutoFlowCtrlCmd+0x20>
            UART1_CTRL &= (~FlowCtrl_Enable);
 100168e:	4a06      	ldr	r2, [pc, #24]	; (10016a8 <UART_AutoFlowCtrlCmd+0x54>)
 1001690:	e000      	b.n	1001694 <UART_AutoFlowCtrlCmd+0x40>
            UART0_CTRL &= (~FlowCtrl_Enable);
 1001692:	4a04      	ldr	r2, [pc, #16]	; (10016a4 <UART_AutoFlowCtrlCmd+0x50>)
            UART1_CTRL &= (~FlowCtrl_Enable);
 1001694:	2110      	movs	r1, #16
 1001696:	6813      	ldr	r3, [r2, #0]
 1001698:	438b      	bics	r3, r1
 100169a:	e7f0      	b.n	100167e <UART_AutoFlowCtrlCmd+0x2a>
 100169c:	010055ba 	.word	0x010055ba
 10016a0:	01005593 	.word	0x01005593
 10016a4:	000f8b1c 	.word	0x000f8b1c
 10016a8:	000f8c1c 	.word	0x000f8c1c

010016ac <UART_ClearIT>:

void UART_ClearIT(UART_TypeDef UARTx)
{
 10016ac:	b510      	push	{r4, lr}
 10016ae:	0004      	movs	r4, r0
    uint8_t ITType = UART_GetITIdentity(UARTx);
 10016b0:	f000 f860 	bl	1001774 <UART_GetITIdentity>
    UART_ITConfig(UARTx, ITType, DISABLE);
 10016b4:	2200      	movs	r2, #0
    uint8_t ITType = UART_GetITIdentity(UARTx);
 10016b6:	0001      	movs	r1, r0
    UART_ITConfig(UARTx, ITType, DISABLE);
 10016b8:	0020      	movs	r0, r4
 10016ba:	f000 f96d 	bl	1001998 <UART_ITConfig>
}
 10016be:	bd10      	pop	{r4, pc}

010016c0 <UART_DeInit>:

void UART_DeInit(UART_TypeDef  UARTx)
{
 10016c0:	b510      	push	{r4, lr}
    _ASSERT(IS_UART(UARTx));
 10016c2:	2801      	cmp	r0, #1
 10016c4:	d905      	bls.n	10016d2 <UART_DeInit+0x12>
 10016c6:	4a07      	ldr	r2, [pc, #28]	; (10016e4 <UART_DeInit+0x24>)
 10016c8:	2141      	movs	r1, #65	; 0x41
 10016ca:	4807      	ldr	r0, [pc, #28]	; (10016e8 <UART_DeInit+0x28>)
 10016cc:	f7fe ff96 	bl	10005fc <_assert_handler>
        break;
    case UART1:
        UART1_CTRL = 0;
        break;
    }
}
 10016d0:	bd10      	pop	{r4, pc}
 10016d2:	2300      	movs	r3, #0
    switch (UARTx)
 10016d4:	2801      	cmp	r0, #1
 10016d6:	d002      	beq.n	10016de <UART_DeInit+0x1e>
        UART0_CTRL = 0;
 10016d8:	4a04      	ldr	r2, [pc, #16]	; (10016ec <UART_DeInit+0x2c>)
        UART1_CTRL = 0;
 10016da:	6013      	str	r3, [r2, #0]
}
 10016dc:	e7f8      	b.n	10016d0 <UART_DeInit+0x10>
        UART1_CTRL = 0;
 10016de:	4a04      	ldr	r2, [pc, #16]	; (10016f0 <UART_DeInit+0x30>)
 10016e0:	e7fb      	b.n	10016da <UART_DeInit+0x1a>
 10016e2:	46c0      	nop			; (mov r8, r8)
 10016e4:	010055cf 	.word	0x010055cf
 10016e8:	01005593 	.word	0x01005593
 10016ec:	000f8b1c 	.word	0x000f8b1c
 10016f0:	000f8c1c 	.word	0x000f8c1c

010016f4 <UART_DMASendBuf>:

void UART_DMASendBuf(UART_TypeDef UARTx, uint8_t *buf, int len)
{
 10016f4:	b570      	push	{r4, r5, r6, lr}
 10016f6:	0005      	movs	r5, r0
 10016f8:	000c      	movs	r4, r1
 10016fa:	0016      	movs	r6, r2
    _ASSERT(IS_UART(UARTx));
 10016fc:	2801      	cmp	r0, #1
 10016fe:	d904      	bls.n	100170a <UART_DMASendBuf+0x16>
 1001700:	4a14      	ldr	r2, [pc, #80]	; (1001754 <UART_DMASendBuf+0x60>)
 1001702:	2150      	movs	r1, #80	; 0x50
 1001704:	4814      	ldr	r0, [pc, #80]	; (1001758 <UART_DMASendBuf+0x64>)
 1001706:	f7fe ff79 	bl	10005fc <_assert_handler>
    _ASSERT(NULL != buf);
 100170a:	2c00      	cmp	r4, #0
 100170c:	d104      	bne.n	1001718 <UART_DMASendBuf+0x24>
 100170e:	4a11      	ldr	r2, [pc, #68]	; (1001754 <UART_DMASendBuf+0x60>)
 1001710:	2151      	movs	r1, #81	; 0x51
 1001712:	4811      	ldr	r0, [pc, #68]	; (1001758 <UART_DMASendBuf+0x64>)
 1001714:	f7fe ff72 	bl	10005fc <_assert_handler>
    _ASSERT((len < 0xffff));
 1001718:	4b10      	ldr	r3, [pc, #64]	; (100175c <UART_DMASendBuf+0x68>)
 100171a:	429e      	cmp	r6, r3
 100171c:	dd04      	ble.n	1001728 <UART_DMASendBuf+0x34>
 100171e:	4a0d      	ldr	r2, [pc, #52]	; (1001754 <UART_DMASendBuf+0x60>)
 1001720:	2152      	movs	r1, #82	; 0x52
 1001722:	480d      	ldr	r0, [pc, #52]	; (1001758 <UART_DMASendBuf+0x64>)
 1001724:	f7fe ff6a 	bl	10005fc <_assert_handler>
 1001728:	0436      	lsls	r6, r6, #16
 100172a:	480d      	ldr	r0, [pc, #52]	; (1001760 <UART_DMASendBuf+0x6c>)

    if (UARTx == UART0)
 100172c:	2d00      	cmp	r5, #0
 100172e:	d109      	bne.n	1001744 <UART_DMASendBuf+0x50>
    {
        DMA_SRC_ADDR(DMACH_UART0) = (int)buf;
 1001730:	4b0c      	ldr	r3, [pc, #48]	; (1001764 <UART_DMASendBuf+0x70>)
 1001732:	601c      	str	r4, [r3, #0]
        DMA_LEN(DMACH_UART0) = (DMA_LEN(DMACH_UART0) & 0xffff) | len << 16;
 1001734:	4b0c      	ldr	r3, [pc, #48]	; (1001768 <UART_DMASendBuf+0x74>)
 1001736:	681a      	ldr	r2, [r3, #0]
 1001738:	b292      	uxth	r2, r2
 100173a:	4332      	orrs	r2, r6
 100173c:	601a      	str	r2, [r3, #0]
    }
    else
    {
        DMA_SRC_ADDR(DMACH_UART1) = (int)buf;
        DMA_LEN(DMACH_UART1) = (DMA_LEN(DMACH_UART1) & 0xffff) | len << 16;
        DMA_START(DMACH_UART0) = (1 << DMA_START_BIT);
 100173e:	2380      	movs	r3, #128	; 0x80
 1001740:	7003      	strb	r3, [r0, #0]
    }
}
 1001742:	bd70      	pop	{r4, r5, r6, pc}
        DMA_SRC_ADDR(DMACH_UART1) = (int)buf;
 1001744:	4b09      	ldr	r3, [pc, #36]	; (100176c <UART_DMASendBuf+0x78>)
 1001746:	601c      	str	r4, [r3, #0]
        DMA_LEN(DMACH_UART1) = (DMA_LEN(DMACH_UART1) & 0xffff) | len << 16;
 1001748:	4c09      	ldr	r4, [pc, #36]	; (1001770 <UART_DMASendBuf+0x7c>)
 100174a:	6822      	ldr	r2, [r4, #0]
 100174c:	b292      	uxth	r2, r2
 100174e:	4332      	orrs	r2, r6
 1001750:	6022      	str	r2, [r4, #0]
 1001752:	e7f4      	b.n	100173e <UART_DMASendBuf+0x4a>
 1001754:	010055db 	.word	0x010055db
 1001758:	01005593 	.word	0x01005593
 100175c:	0000fffe 	.word	0x0000fffe
 1001760:	000f8b0f 	.word	0x000f8b0f
 1001764:	000f8b00 	.word	0x000f8b00
 1001768:	000f8b08 	.word	0x000f8b08
 100176c:	000f8c00 	.word	0x000f8c00
 1001770:	000f8c08 	.word	0x000f8c08

01001774 <UART_GetITIdentity>:

uint8_t UART_GetITIdentity(UART_TypeDef UARTx)
{
    uint8_t IT_Mode = 0;
    switch (UARTx)
 1001774:	2800      	cmp	r0, #0
 1001776:	d003      	beq.n	1001780 <UART_GetITIdentity+0xc>
 1001778:	2801      	cmp	r0, #1
 100177a:	d010      	beq.n	100179e <UART_GetITIdentity+0x2a>
    uint8_t IT_Mode = 0;
 100177c:	2000      	movs	r0, #0
 100177e:	e00d      	b.n	100179c <UART_GetITIdentity+0x28>
    {
    case UART0:
    {
        if (((UART0_CTRL & Set_RxITNum_Mask) > 0) && ((UART0_STATUS >> 16) > 0))
 1001780:	22ff      	movs	r2, #255	; 0xff
 1001782:	4b0b      	ldr	r3, [pc, #44]	; (10017b0 <UART_GetITIdentity+0x3c>)
 1001784:	0212      	lsls	r2, r2, #8
 1001786:	6819      	ldr	r1, [r3, #0]
 1001788:	4211      	tst	r1, r2
 100178a:	d005      	beq.n	1001798 <UART_GetITIdentity+0x24>
 100178c:	4a09      	ldr	r2, [pc, #36]	; (10017b4 <UART_GetITIdentity+0x40>)
    }
    break;

    case UART1:
    {
        if (((UART1_CTRL & Set_RxITNum_Mask) > 0) && ((UART1_STATUS >> 16) > 0))
 100178e:	6812      	ldr	r2, [r2, #0]
            IT_Mode =  UART_IT_RX;
 1001790:	2002      	movs	r0, #2
        if (((UART1_CTRL & Set_RxITNum_Mask) > 0) && ((UART1_STATUS >> 16) > 0))
 1001792:	1412      	asrs	r2, r2, #16
 1001794:	2a00      	cmp	r2, #0
 1001796:	dc01      	bgt.n	100179c <UART_GetITIdentity+0x28>
        {
            IT_Mode =  UART_IT_RX;
        }
        else
        {
            if (UART1_CTRL & TX_INTR_ENABLE)
 1001798:	6818      	ldr	r0, [r3, #0]
    uint8_t IT_Mode = 0;
 100179a:	0fc0      	lsrs	r0, r0, #31
        }
    }
    break;
    }
    return IT_Mode;
}
 100179c:	4770      	bx	lr
        if (((UART1_CTRL & Set_RxITNum_Mask) > 0) && ((UART1_STATUS >> 16) > 0))
 100179e:	22ff      	movs	r2, #255	; 0xff
 10017a0:	4b05      	ldr	r3, [pc, #20]	; (10017b8 <UART_GetITIdentity+0x44>)
 10017a2:	0212      	lsls	r2, r2, #8
 10017a4:	6819      	ldr	r1, [r3, #0]
 10017a6:	4211      	tst	r1, r2
 10017a8:	d0f6      	beq.n	1001798 <UART_GetITIdentity+0x24>
 10017aa:	4a04      	ldr	r2, [pc, #16]	; (10017bc <UART_GetITIdentity+0x48>)
 10017ac:	e7ef      	b.n	100178e <UART_GetITIdentity+0x1a>
 10017ae:	46c0      	nop			; (mov r8, r8)
 10017b0:	000f8b1c 	.word	0x000f8b1c
 10017b4:	000f8b28 	.word	0x000f8b28
 10017b8:	000f8c1c 	.word	0x000f8c1c
 10017bc:	000f8c28 	.word	0x000f8c28

010017c0 <UART_Init>:

void UART_Init(UART_TypeDef UARTx, UART_InitTypeDef *UART_InitStruct)
{
 10017c0:	b570      	push	{r4, r5, r6, lr}
 10017c2:	0005      	movs	r5, r0
 10017c4:	000e      	movs	r6, r1
#define RESET_BAUD (1<<7)
#define AUTO_BAUD  (0<<7)
    uint32_t reg_value = 0;
    uint32_t temp_baudrate = 0;

    _ASSERT(IS_UART(UARTx));
 10017c6:	2801      	cmp	r0, #1
 10017c8:	d904      	bls.n	10017d4 <UART_Init+0x14>
 10017ca:	4a3a      	ldr	r2, [pc, #232]	; (10018b4 <UART_Init+0xf4>)
 10017cc:	219a      	movs	r1, #154	; 0x9a
 10017ce:	483a      	ldr	r0, [pc, #232]	; (10018b8 <UART_Init+0xf8>)
 10017d0:	f7fe ff14 	bl	10005fc <_assert_handler>
    _ASSERT(IS_MODE(UART_InitStruct->Mode));
 10017d4:	2240      	movs	r2, #64	; 0x40
 10017d6:	7833      	ldrb	r3, [r6, #0]
 10017d8:	4393      	bics	r3, r2
 10017da:	d004      	beq.n	10017e6 <UART_Init+0x26>
 10017dc:	4a35      	ldr	r2, [pc, #212]	; (10018b4 <UART_Init+0xf4>)
 10017de:	219b      	movs	r1, #155	; 0x9b
 10017e0:	4835      	ldr	r0, [pc, #212]	; (10018b8 <UART_Init+0xf8>)
 10017e2:	f7fe ff0b 	bl	10005fc <_assert_handler>
    _ASSERT(IS_BAUDRATE(UART_InitStruct->BaudRate));
 10017e6:	4a35      	ldr	r2, [pc, #212]	; (10018bc <UART_Init+0xfc>)
 10017e8:	6873      	ldr	r3, [r6, #4]
 10017ea:	189b      	adds	r3, r3, r2
 10017ec:	4a34      	ldr	r2, [pc, #208]	; (10018c0 <UART_Init+0x100>)
 10017ee:	4293      	cmp	r3, r2
 10017f0:	d904      	bls.n	10017fc <UART_Init+0x3c>
 10017f2:	4a30      	ldr	r2, [pc, #192]	; (10018b4 <UART_Init+0xf4>)
 10017f4:	219c      	movs	r1, #156	; 0x9c
 10017f6:	4830      	ldr	r0, [pc, #192]	; (10018b8 <UART_Init+0xf8>)
 10017f8:	f7fe ff00 	bl	10005fc <_assert_handler>
    _ASSERT(IS_PARITY(UART_InitStruct->Parity));
 10017fc:	2202      	movs	r2, #2
 10017fe:	7ab3      	ldrb	r3, [r6, #10]
 1001800:	4393      	bics	r3, r2
 1001802:	d004      	beq.n	100180e <UART_Init+0x4e>
 1001804:	4a2b      	ldr	r2, [pc, #172]	; (10018b4 <UART_Init+0xf4>)
 1001806:	219d      	movs	r1, #157	; 0x9d
 1001808:	482b      	ldr	r0, [pc, #172]	; (10018b8 <UART_Init+0xf8>)
 100180a:	f7fe fef7 	bl	10005fc <_assert_handler>
    _ASSERT(IS_FlowCtrl(UART_InitStruct->FlowCtrl));
 100180e:	2210      	movs	r2, #16
 1001810:	7af3      	ldrb	r3, [r6, #11]
 1001812:	4393      	bics	r3, r2
 1001814:	d004      	beq.n	1001820 <UART_Init+0x60>
 1001816:	4a27      	ldr	r2, [pc, #156]	; (10018b4 <UART_Init+0xf4>)
 1001818:	219e      	movs	r1, #158	; 0x9e
 100181a:	4827      	ldr	r0, [pc, #156]	; (10018b8 <UART_Init+0xf8>)
 100181c:	f7fe feee 	bl	10005fc <_assert_handler>
    _ASSERT(IS_USART_STOPBITS(UART_InitStruct->StopBits));
 1001820:	2208      	movs	r2, #8
 1001822:	7a73      	ldrb	r3, [r6, #9]
 1001824:	4393      	bics	r3, r2
 1001826:	d004      	beq.n	1001832 <UART_Init+0x72>
 1001828:	4a22      	ldr	r2, [pc, #136]	; (10018b4 <UART_Init+0xf4>)
 100182a:	219f      	movs	r1, #159	; 0x9f
 100182c:	4822      	ldr	r0, [pc, #136]	; (10018b8 <UART_Init+0xf8>)
 100182e:	f7fe fee5 	bl	10005fc <_assert_handler>
    reg_value = RX_ENABLE                |
                UART_InitStruct->Parity  | \
                UART_InitStruct->DataBits | \
                UART_InitStruct->StopBits | \
                UART_InitStruct->FlowCtrl | \
                UART_InitStruct->Mode    | \
 1001832:	7ab0      	ldrb	r0, [r6, #10]
 1001834:	7a34      	ldrb	r4, [r6, #8]
    temp_baudrate = ((48000000 / UART_InitStruct->BaudRate) << 16);
 1001836:	6871      	ldr	r1, [r6, #4]
                UART_InitStruct->Mode    | \
 1001838:	4304      	orrs	r4, r0
 100183a:	207f      	movs	r0, #127	; 0x7f
 100183c:	4240      	negs	r0, r0
 100183e:	4320      	orrs	r0, r4
 1001840:	7a74      	ldrb	r4, [r6, #9]
 1001842:	4320      	orrs	r0, r4
 1001844:	7af4      	ldrb	r4, [r6, #11]
 1001846:	4320      	orrs	r0, r4
 1001848:	7834      	ldrb	r4, [r6, #0]
 100184a:	4304      	orrs	r4, r0
    temp_baudrate = ((48000000 / UART_InitStruct->BaudRate) << 16);
 100184c:	481d      	ldr	r0, [pc, #116]	; (10018c4 <UART_Init+0x104>)
 100184e:	f002 fb6d 	bl	1003f2c <__udivsi3>
 1001852:	2380      	movs	r3, #128	; 0x80
                UART_InitStruct->Mode    | \
 1001854:	b2e4      	uxtb	r4, r4
    temp_baudrate = ((48000000 / UART_InitStruct->BaudRate) << 16);
 1001856:	0400      	lsls	r0, r0, #16
    reg_value = RX_ENABLE                |
 1001858:	4320      	orrs	r0, r4
 100185a:	00db      	lsls	r3, r3, #3
                RESET_BAUD               | \
                temp_baudrate;

    if (UARTx == UART0)
 100185c:	2d00      	cmp	r5, #0
 100185e:	d114      	bne.n	100188a <UART_Init+0xca>
    {
        UART0_CTRL                 = 0;
 1001860:	4a19      	ldr	r2, [pc, #100]	; (10018c8 <UART_Init+0x108>)
        DMA_DEST_ADDR(DMACH_UART0) = (int)uart0_DMA_buf;
 1001862:	4c1a      	ldr	r4, [pc, #104]	; (10018cc <UART_Init+0x10c>)
 1001864:	491a      	ldr	r1, [pc, #104]	; (10018d0 <UART_Init+0x110>)
        UART0_CTRL                 = 0;
 1001866:	6015      	str	r5, [r2, #0]
        DMA_DEST_ADDR(DMACH_UART0) = (int)uart0_DMA_buf;
 1001868:	600c      	str	r4, [r1, #0]
        DMA_LEN(DMACH_UART0)       = uart_DMA_buf_len;
 100186a:	491a      	ldr	r1, [pc, #104]	; (10018d4 <UART_Init+0x114>)
        DMA_CONFIG(DMACH_UART0)    = 1;
        DMA_START(DMACH_UART0)    |= (1 << (DMA_RESET_BIT));
 100186c:	2420      	movs	r4, #32
        DMA_LEN(DMACH_UART0)       = uart_DMA_buf_len;
 100186e:	600b      	str	r3, [r1, #0]
        DMA_CONFIG(DMACH_UART0)    = 1;
 1001870:	2101      	movs	r1, #1
 1001872:	4b19      	ldr	r3, [pc, #100]	; (10018d8 <UART_Init+0x118>)
 1001874:	7019      	strb	r1, [r3, #0]
        DMA_START(DMACH_UART0)    |= (1 << (DMA_RESET_BIT));
 1001876:	4b19      	ldr	r3, [pc, #100]	; (10018dc <UART_Init+0x11c>)
 1001878:	7819      	ldrb	r1, [r3, #0]
 100187a:	4321      	orrs	r1, r4
 100187c:	7019      	strb	r1, [r3, #0]
        DMA_START(DMACH_UART0)    &= ~(1 << (DMA_RESET_BIT));
 100187e:	7819      	ldrb	r1, [r3, #0]
 1001880:	43a1      	bics	r1, r4
 1001882:	7019      	strb	r1, [r3, #0]
        UART0_CTRL                 = 0;
 1001884:	6015      	str	r5, [r2, #0]
        DMA_LEN(DMACH_UART1)       = uart_DMA_buf_len;
        DMA_CONFIG(DMACH_UART1)    = 1;
        DMA_START(DMACH_UART1)    |= (1 << (DMA_RESET_BIT));
        DMA_START(DMACH_UART1)    &= ~(1 << (DMA_RESET_BIT));
        UART1_CTRL                 = 0;
        UART1_CTRL                 = reg_value;
 1001886:	6010      	str	r0, [r2, #0]
    }
    return;
}
 1001888:	bd70      	pop	{r4, r5, r6, pc}
        UART1_CTRL                 = 0;
 100188a:	2400      	movs	r4, #0
 100188c:	4a14      	ldr	r2, [pc, #80]	; (10018e0 <UART_Init+0x120>)
        DMA_DEST_ADDR(DMACH_UART1) = (int)uart1_DMA_buf;
 100188e:	4d15      	ldr	r5, [pc, #84]	; (10018e4 <UART_Init+0x124>)
 1001890:	4915      	ldr	r1, [pc, #84]	; (10018e8 <UART_Init+0x128>)
        UART1_CTRL                 = 0;
 1001892:	6014      	str	r4, [r2, #0]
        DMA_DEST_ADDR(DMACH_UART1) = (int)uart1_DMA_buf;
 1001894:	600d      	str	r5, [r1, #0]
        DMA_LEN(DMACH_UART1)       = uart_DMA_buf_len;
 1001896:	4915      	ldr	r1, [pc, #84]	; (10018ec <UART_Init+0x12c>)
        DMA_START(DMACH_UART1)    |= (1 << (DMA_RESET_BIT));
 1001898:	2520      	movs	r5, #32
        DMA_LEN(DMACH_UART1)       = uart_DMA_buf_len;
 100189a:	600b      	str	r3, [r1, #0]
        DMA_CONFIG(DMACH_UART1)    = 1;
 100189c:	2101      	movs	r1, #1
 100189e:	4b14      	ldr	r3, [pc, #80]	; (10018f0 <UART_Init+0x130>)
 10018a0:	7019      	strb	r1, [r3, #0]
        DMA_START(DMACH_UART1)    |= (1 << (DMA_RESET_BIT));
 10018a2:	4b14      	ldr	r3, [pc, #80]	; (10018f4 <UART_Init+0x134>)
 10018a4:	7819      	ldrb	r1, [r3, #0]
 10018a6:	4329      	orrs	r1, r5
 10018a8:	7019      	strb	r1, [r3, #0]
        DMA_START(DMACH_UART1)    &= ~(1 << (DMA_RESET_BIT));
 10018aa:	7819      	ldrb	r1, [r3, #0]
 10018ac:	43a9      	bics	r1, r5
 10018ae:	7019      	strb	r1, [r3, #0]
        UART1_CTRL                 = 0;
 10018b0:	6014      	str	r4, [r2, #0]
 10018b2:	e7e8      	b.n	1001886 <UART_Init+0xc6>
 10018b4:	010055eb 	.word	0x010055eb
 10018b8:	01005593 	.word	0x01005593
 10018bc:	fffffa47 	.word	0xfffffa47
 10018c0:	0044a467 	.word	0x0044a467
 10018c4:	02dc6c00 	.word	0x02dc6c00
 10018c8:	000f8b1c 	.word	0x000f8b1c
 10018cc:	00020246 	.word	0x00020246
 10018d0:	000f8b04 	.word	0x000f8b04
 10018d4:	000f8b08 	.word	0x000f8b08
 10018d8:	000f8b0c 	.word	0x000f8b0c
 10018dc:	000f8b0f 	.word	0x000f8b0f
 10018e0:	000f8c1c 	.word	0x000f8c1c
 10018e4:	00020646 	.word	0x00020646
 10018e8:	000f8c04 	.word	0x000f8c04
 10018ec:	000f8c08 	.word	0x000f8c08
 10018f0:	000f8c0c 	.word	0x000f8c0c
 10018f4:	000f8c0f 	.word	0x000f8c0f

010018f8 <UART_IsRXFIFOFull>:

Boolean UART_IsRXFIFOFull(UART_TypeDef UARTx)
{
 10018f8:	b510      	push	{r4, lr}
#define BITRXFULL 1
    _ASSERT(IS_UART(UARTx));
 10018fa:	2801      	cmp	r0, #1
 10018fc:	d906      	bls.n	100190c <UART_IsRXFIFOFull+0x14>
 10018fe:	4a07      	ldr	r2, [pc, #28]	; (100191c <UART_IsRXFIFOFull+0x24>)
 1001900:	21c8      	movs	r1, #200	; 0xc8
 1001902:	4807      	ldr	r0, [pc, #28]	; (1001920 <UART_IsRXFIFOFull+0x28>)
 1001904:	f7fe fe7a 	bl	10005fc <_assert_handler>
    {
        return (Boolean)(UART0_STATUS & (1 << BITRXFULL));
    }
    else
    {
        return (Boolean)(UART1_STATUS & (1 << BITRXFULL));
 1001908:	4b06      	ldr	r3, [pc, #24]	; (1001924 <UART_IsRXFIFOFull+0x2c>)
 100190a:	e002      	b.n	1001912 <UART_IsRXFIFOFull+0x1a>
    if (UART0 == UARTx)
 100190c:	2800      	cmp	r0, #0
 100190e:	d1fb      	bne.n	1001908 <UART_IsRXFIFOFull+0x10>
        return (Boolean)(UART0_STATUS & (1 << BITRXFULL));
 1001910:	4b05      	ldr	r3, [pc, #20]	; (1001928 <UART_IsRXFIFOFull+0x30>)
        return (Boolean)(UART1_STATUS & (1 << BITRXFULL));
 1001912:	6818      	ldr	r0, [r3, #0]
 1001914:	2302      	movs	r3, #2
 1001916:	4018      	ands	r0, r3
    }
}
 1001918:	bd10      	pop	{r4, pc}
 100191a:	46c0      	nop			; (mov r8, r8)
 100191c:	010055f5 	.word	0x010055f5
 1001920:	01005593 	.word	0x01005593
 1001924:	000f8c28 	.word	0x000f8c28
 1001928:	000f8b28 	.word	0x000f8b28

0100192c <UART_IsRXFIFONotEmpty>:

Boolean UART_IsRXFIFONotEmpty(UART_TypeDef  UARTx)
{
 100192c:	b510      	push	{r4, lr}
#define BITRXEMPTY 0
    _ASSERT(IS_UART(UARTx));
 100192e:	2801      	cmp	r0, #1
 1001930:	d906      	bls.n	1001940 <UART_IsRXFIFONotEmpty+0x14>
 1001932:	4a08      	ldr	r2, [pc, #32]	; (1001954 <UART_IsRXFIFONotEmpty+0x28>)
 1001934:	21d7      	movs	r1, #215	; 0xd7
 1001936:	4808      	ldr	r0, [pc, #32]	; (1001958 <UART_IsRXFIFONotEmpty+0x2c>)
 1001938:	f7fe fe60 	bl	10005fc <_assert_handler>
    {
        return (Boolean)((UART0_STATUS >> 16) ? 1 : 0);
    }
    else
    {
        return (Boolean)((UART1_STATUS >> 16) ? 1 : 0);
 100193c:	4b07      	ldr	r3, [pc, #28]	; (100195c <UART_IsRXFIFONotEmpty+0x30>)
 100193e:	e002      	b.n	1001946 <UART_IsRXFIFONotEmpty+0x1a>
    if (UART0 == UARTx)
 1001940:	2800      	cmp	r0, #0
 1001942:	d1fb      	bne.n	100193c <UART_IsRXFIFONotEmpty+0x10>
        return (Boolean)((UART0_STATUS >> 16) ? 1 : 0);
 1001944:	4b06      	ldr	r3, [pc, #24]	; (1001960 <UART_IsRXFIFONotEmpty+0x34>)
        return (Boolean)((UART1_STATUS >> 16) ? 1 : 0);
 1001946:	6818      	ldr	r0, [r3, #0]
 1001948:	1400      	asrs	r0, r0, #16
 100194a:	1e43      	subs	r3, r0, #1
 100194c:	4198      	sbcs	r0, r3
        return (Boolean)((UART0_STATUS >> 16) ? 1 : 0);
 100194e:	b2c0      	uxtb	r0, r0
    }
}
 1001950:	bd10      	pop	{r4, pc}
 1001952:	46c0      	nop			; (mov r8, r8)
 1001954:	01005607 	.word	0x01005607
 1001958:	01005593 	.word	0x01005593
 100195c:	000f8c28 	.word	0x000f8c28
 1001960:	000f8b28 	.word	0x000f8b28

01001964 <UART_IsUARTBusy>:

Boolean UART_IsUARTBusy(UART_TypeDef  UARTx)
{
 1001964:	b510      	push	{r4, lr}
    _ASSERT(IS_UART(UARTx));
 1001966:	2801      	cmp	r0, #1
 1001968:	d906      	bls.n	1001978 <UART_IsUARTBusy+0x14>
 100196a:	4a07      	ldr	r2, [pc, #28]	; (1001988 <UART_IsUARTBusy+0x24>)
 100196c:	21e5      	movs	r1, #229	; 0xe5
 100196e:	4807      	ldr	r0, [pc, #28]	; (100198c <UART_IsUARTBusy+0x28>)
 1001970:	f7fe fe44 	bl	10005fc <_assert_handler>
    {
        return (Boolean)(!(DMA_STATUS(DMACH_UART0) & 1));
    }
    else
    {
        return (Boolean)(!(DMA_STATUS(DMACH_UART1) & 1));
 1001974:	4b06      	ldr	r3, [pc, #24]	; (1001990 <UART_IsUARTBusy+0x2c>)
 1001976:	e002      	b.n	100197e <UART_IsUARTBusy+0x1a>
    if (UART0 == UARTx)
 1001978:	2800      	cmp	r0, #0
 100197a:	d1fb      	bne.n	1001974 <UART_IsUARTBusy+0x10>
        return (Boolean)(!(DMA_STATUS(DMACH_UART0) & 1));
 100197c:	4b05      	ldr	r3, [pc, #20]	; (1001994 <UART_IsUARTBusy+0x30>)
        return (Boolean)(!(DMA_STATUS(DMACH_UART1) & 1));
 100197e:	2001      	movs	r0, #1
 1001980:	681b      	ldr	r3, [r3, #0]
 1001982:	4398      	bics	r0, r3
    }
}
 1001984:	bd10      	pop	{r4, pc}
 1001986:	46c0      	nop			; (mov r8, r8)
 1001988:	0100561d 	.word	0x0100561d
 100198c:	01005593 	.word	0x01005593
 1001990:	000f8c10 	.word	0x000f8c10
 1001994:	000f8b10 	.word	0x000f8b10

01001998 <UART_ITConfig>:

void UART_ITConfig(UART_TypeDef UARTx, uint32_t UART_IT, FunctionalState NewState)
{
 1001998:	b570      	push	{r4, r5, r6, lr}
 100199a:	0006      	movs	r6, r0
 100199c:	000d      	movs	r5, r1
 100199e:	0014      	movs	r4, r2
    _ASSERT(IS_UART(UARTx));
 10019a0:	2801      	cmp	r0, #1
 10019a2:	d904      	bls.n	10019ae <UART_ITConfig+0x16>
 10019a4:	4a1a      	ldr	r2, [pc, #104]	; (1001a10 <UART_ITConfig+0x78>)
 10019a6:	21f3      	movs	r1, #243	; 0xf3
 10019a8:	481a      	ldr	r0, [pc, #104]	; (1001a14 <UART_ITConfig+0x7c>)
 10019aa:	f7fe fe27 	bl	10005fc <_assert_handler>
    _ASSERT(IS_UART_IT(UART_IT));
 10019ae:	1e6b      	subs	r3, r5, #1
 10019b0:	2b01      	cmp	r3, #1
 10019b2:	d904      	bls.n	10019be <UART_ITConfig+0x26>
 10019b4:	4a16      	ldr	r2, [pc, #88]	; (1001a10 <UART_ITConfig+0x78>)
 10019b6:	21f4      	movs	r1, #244	; 0xf4
 10019b8:	4816      	ldr	r0, [pc, #88]	; (1001a14 <UART_ITConfig+0x7c>)
 10019ba:	f7fe fe1f 	bl	10005fc <_assert_handler>

    switch (UARTx)
 10019be:	2e00      	cmp	r6, #0
 10019c0:	d002      	beq.n	10019c8 <UART_ITConfig+0x30>
 10019c2:	2e01      	cmp	r6, #1
 10019c4:	d01b      	beq.n	10019fe <UART_ITConfig+0x66>
            UART1_CTRL |= (NewState << TX_INTR_ENABLE_BIT);
        }
    }
    break;
    }
}
 10019c6:	bd70      	pop	{r4, r5, r6, pc}
        if (UART_IT == UART_IT_RX)
 10019c8:	2d02      	cmp	r5, #2
 10019ca:	d10c      	bne.n	10019e6 <UART_ITConfig+0x4e>
 10019cc:	4b12      	ldr	r3, [pc, #72]	; (1001a18 <UART_ITConfig+0x80>)
            if (NewState)
 10019ce:	2c00      	cmp	r4, #0
 10019d0:	d004      	beq.n	10019dc <UART_ITConfig+0x44>
                UART1_CTRL |= ((ENABLE << 8));
 10019d2:	2280      	movs	r2, #128	; 0x80
 10019d4:	6819      	ldr	r1, [r3, #0]
 10019d6:	0052      	lsls	r2, r2, #1
 10019d8:	430a      	orrs	r2, r1
 10019da:	e002      	b.n	10019e2 <UART_ITConfig+0x4a>
                UART0_CTRL &= ~Set_RxITNum_Mask;
 10019dc:	681a      	ldr	r2, [r3, #0]
 10019de:	490f      	ldr	r1, [pc, #60]	; (1001a1c <UART_ITConfig+0x84>)
 10019e0:	400a      	ands	r2, r1
 10019e2:	601a      	str	r2, [r3, #0]
 10019e4:	e7ef      	b.n	10019c6 <UART_ITConfig+0x2e>
        else if (UART_IT == UART_IT_TX)
 10019e6:	2d01      	cmp	r5, #1
 10019e8:	d1ed      	bne.n	10019c6 <UART_ITConfig+0x2e>
            UART0_CTRL &= (~TX_INTR_ENABLE);
 10019ea:	4a0b      	ldr	r2, [pc, #44]	; (1001a18 <UART_ITConfig+0x80>)
            UART1_CTRL &= (uint32_t)~TX_INTR_ENABLE;
 10019ec:	6813      	ldr	r3, [r2, #0]
            UART1_CTRL |= (NewState << TX_INTR_ENABLE_BIT);
 10019ee:	07e4      	lsls	r4, r4, #31
            UART1_CTRL &= (uint32_t)~TX_INTR_ENABLE;
 10019f0:	005b      	lsls	r3, r3, #1
 10019f2:	085b      	lsrs	r3, r3, #1
 10019f4:	6013      	str	r3, [r2, #0]
            UART1_CTRL |= (NewState << TX_INTR_ENABLE_BIT);
 10019f6:	6813      	ldr	r3, [r2, #0]
 10019f8:	431c      	orrs	r4, r3
 10019fa:	6014      	str	r4, [r2, #0]
}
 10019fc:	e7e3      	b.n	10019c6 <UART_ITConfig+0x2e>
        if (UART_IT == UART_IT_RX)
 10019fe:	2d02      	cmp	r5, #2
 1001a00:	d101      	bne.n	1001a06 <UART_ITConfig+0x6e>
 1001a02:	4b07      	ldr	r3, [pc, #28]	; (1001a20 <UART_ITConfig+0x88>)
 1001a04:	e7e3      	b.n	10019ce <UART_ITConfig+0x36>
        else if (UART_IT == UART_IT_TX)
 1001a06:	2d01      	cmp	r5, #1
 1001a08:	d1dd      	bne.n	10019c6 <UART_ITConfig+0x2e>
            UART1_CTRL &= (uint32_t)~TX_INTR_ENABLE;
 1001a0a:	4a05      	ldr	r2, [pc, #20]	; (1001a20 <UART_ITConfig+0x88>)
 1001a0c:	e7ee      	b.n	10019ec <UART_ITConfig+0x54>
 1001a0e:	46c0      	nop			; (mov r8, r8)
 1001a10:	0100562d 	.word	0x0100562d
 1001a14:	01005593 	.word	0x01005593
 1001a18:	000f8b1c 	.word	0x000f8b1c
 1001a1c:	ffff00ff 	.word	0xffff00ff
 1001a20:	000f8c1c 	.word	0x000f8c1c

01001a24 <UART_ReceiveData>:

uint8_t UART_ReceiveData(UART_TypeDef UARTx)
{
 1001a24:	b510      	push	{r4, lr}
    _ASSERT(IS_UART(UARTx));
 1001a26:	2801      	cmp	r0, #1
 1001a28:	d907      	bls.n	1001a3a <UART_ReceiveData+0x16>
 1001a2a:	2128      	movs	r1, #40	; 0x28
 1001a2c:	4a06      	ldr	r2, [pc, #24]	; (1001a48 <UART_ReceiveData+0x24>)
 1001a2e:	31ff      	adds	r1, #255	; 0xff
 1001a30:	4806      	ldr	r0, [pc, #24]	; (1001a4c <UART_ReceiveData+0x28>)
 1001a32:	f7fe fde3 	bl	10005fc <_assert_handler>
    {
        return UART0_RDATA;
    }
    else
    {
        return UART1_RDATA;
 1001a36:	4b06      	ldr	r3, [pc, #24]	; (1001a50 <UART_ReceiveData+0x2c>)
 1001a38:	e002      	b.n	1001a40 <UART_ReceiveData+0x1c>
    if (UART0 == UARTx)
 1001a3a:	2800      	cmp	r0, #0
 1001a3c:	d1fb      	bne.n	1001a36 <UART_ReceiveData+0x12>
        return UART0_RDATA;
 1001a3e:	4b05      	ldr	r3, [pc, #20]	; (1001a54 <UART_ReceiveData+0x30>)
        return UART1_RDATA;
 1001a40:	7818      	ldrb	r0, [r3, #0]
 1001a42:	b2c0      	uxtb	r0, r0
    }
}
 1001a44:	bd10      	pop	{r4, pc}
 1001a46:	46c0      	nop			; (mov r8, r8)
 1001a48:	0100563b 	.word	0x0100563b
 1001a4c:	01005593 	.word	0x01005593
 1001a50:	000f8c24 	.word	0x000f8c24
 1001a54:	000f8b24 	.word	0x000f8b24

01001a58 <UART_RecvBuf>:

int UART_RecvBuf(UART_TypeDef UARTx, uint8_t *buf, int len)
{
 1001a58:	b570      	push	{r4, r5, r6, lr}
 1001a5a:	0006      	movs	r6, r0
 1001a5c:	000c      	movs	r4, r1
 1001a5e:	0015      	movs	r5, r2
    uint32_t length = 0;
    volatile int *pstatus = NULL;
    volatile unsigned char *pdata = NULL;
    _ASSERT(IS_UART(UARTx));
 1001a60:	2801      	cmp	r0, #1
 1001a62:	d905      	bls.n	1001a70 <UART_RecvBuf+0x18>
 1001a64:	219c      	movs	r1, #156	; 0x9c
 1001a66:	4a10      	ldr	r2, [pc, #64]	; (1001aa8 <UART_RecvBuf+0x50>)
 1001a68:	0049      	lsls	r1, r1, #1
 1001a6a:	4810      	ldr	r0, [pc, #64]	; (1001aac <UART_RecvBuf+0x54>)
 1001a6c:	f7fe fdc6 	bl	10005fc <_assert_handler>
    _ASSERT(NULL != buf);
 1001a70:	2c00      	cmp	r4, #0
 1001a72:	d105      	bne.n	1001a80 <UART_RecvBuf+0x28>
 1001a74:	213a      	movs	r1, #58	; 0x3a
 1001a76:	4a0c      	ldr	r2, [pc, #48]	; (1001aa8 <UART_RecvBuf+0x50>)
 1001a78:	31ff      	adds	r1, #255	; 0xff
 1001a7a:	480c      	ldr	r0, [pc, #48]	; (1001aac <UART_RecvBuf+0x54>)
 1001a7c:	f7fe fdbe 	bl	10005fc <_assert_handler>

    if (UART0 == UARTx)
 1001a80:	2e00      	cmp	r6, #0
 1001a82:	d00d      	beq.n	1001aa0 <UART_RecvBuf+0x48>
        pdata = &UART0_RDATA;
    }
    else
    {
        pstatus = &UART1_STATUS;
        pdata = &UART1_RDATA;
 1001a84:	490a      	ldr	r1, [pc, #40]	; (1001ab0 <UART_RecvBuf+0x58>)
        pstatus = &UART1_STATUS;
 1001a86:	4a0b      	ldr	r2, [pc, #44]	; (1001ab4 <UART_RecvBuf+0x5c>)
        pstatus = &UART0_STATUS;
 1001a88:	2000      	movs	r0, #0
 1001a8a:	e004      	b.n	1001a96 <UART_RecvBuf+0x3e>
    }

    while ((*pstatus >> 16) > 0)
    {
        if (length < len)
 1001a8c:	4285      	cmp	r5, r0
 1001a8e:	d006      	beq.n	1001a9e <UART_RecvBuf+0x46>
        {
            buf[length++] = *pdata;
 1001a90:	780b      	ldrb	r3, [r1, #0]
 1001a92:	5423      	strb	r3, [r4, r0]
 1001a94:	3001      	adds	r0, #1
    while ((*pstatus >> 16) > 0)
 1001a96:	6813      	ldr	r3, [r2, #0]
 1001a98:	141b      	asrs	r3, r3, #16
 1001a9a:	2b00      	cmp	r3, #0
 1001a9c:	dcf6      	bgt.n	1001a8c <UART_RecvBuf+0x34>
            break;
        }
    }

    return length;
}
 1001a9e:	bd70      	pop	{r4, r5, r6, pc}
        pdata = &UART0_RDATA;
 1001aa0:	4905      	ldr	r1, [pc, #20]	; (1001ab8 <UART_RecvBuf+0x60>)
        pstatus = &UART0_STATUS;
 1001aa2:	4a06      	ldr	r2, [pc, #24]	; (1001abc <UART_RecvBuf+0x64>)
 1001aa4:	e7f0      	b.n	1001a88 <UART_RecvBuf+0x30>
 1001aa6:	46c0      	nop			; (mov r8, r8)
 1001aa8:	0100564c 	.word	0x0100564c
 1001aac:	01005593 	.word	0x01005593
 1001ab0:	000f8c24 	.word	0x000f8c24
 1001ab4:	000f8c28 	.word	0x000f8c28
 1001ab8:	000f8b24 	.word	0x000f8b24
 1001abc:	000f8b28 	.word	0x000f8b28

01001ac0 <UART_SendBuf>:


void UART_SendBuf(UART_TypeDef UARTx, uint8_t *buf, int len)
{
 1001ac0:	b570      	push	{r4, r5, r6, lr}
 1001ac2:	0004      	movs	r4, r0
 1001ac4:	000e      	movs	r6, r1
 1001ac6:	0015      	movs	r5, r2
    _ASSERT(IS_UART(UARTx));
 1001ac8:	2801      	cmp	r0, #1
 1001aca:	d905      	bls.n	1001ad8 <UART_SendBuf+0x18>
 1001acc:	21ac      	movs	r1, #172	; 0xac
 1001ace:	4a1c      	ldr	r2, [pc, #112]	; (1001b40 <UART_SendBuf+0x80>)
 1001ad0:	0049      	lsls	r1, r1, #1
 1001ad2:	481c      	ldr	r0, [pc, #112]	; (1001b44 <UART_SendBuf+0x84>)
 1001ad4:	f7fe fd92 	bl	10005fc <_assert_handler>
    _ASSERT(NULL != buf);
 1001ad8:	2e00      	cmp	r6, #0
 1001ada:	d105      	bne.n	1001ae8 <UART_SendBuf+0x28>
 1001adc:	215a      	movs	r1, #90	; 0x5a
 1001ade:	4a18      	ldr	r2, [pc, #96]	; (1001b40 <UART_SendBuf+0x80>)
 1001ae0:	31ff      	adds	r1, #255	; 0xff
 1001ae2:	4818      	ldr	r0, [pc, #96]	; (1001b44 <UART_SendBuf+0x84>)
 1001ae4:	f7fe fd8a 	bl	10005fc <_assert_handler>
    _ASSERT((len < 0xffff));
 1001ae8:	4b17      	ldr	r3, [pc, #92]	; (1001b48 <UART_SendBuf+0x88>)
 1001aea:	429d      	cmp	r5, r3
 1001aec:	dd05      	ble.n	1001afa <UART_SendBuf+0x3a>
 1001aee:	21ad      	movs	r1, #173	; 0xad
 1001af0:	4a13      	ldr	r2, [pc, #76]	; (1001b40 <UART_SendBuf+0x80>)
 1001af2:	0049      	lsls	r1, r1, #1
 1001af4:	4813      	ldr	r0, [pc, #76]	; (1001b44 <UART_SendBuf+0x84>)
 1001af6:	f7fe fd81 	bl	10005fc <_assert_handler>
 1001afa:	042d      	lsls	r5, r5, #16

    if (UARTx == UART0)
 1001afc:	2c00      	cmp	r4, #0
 1001afe:	d10f      	bne.n	1001b20 <UART_SendBuf+0x60>
    {
        DMA_SRC_ADDR(DMACH_UART0) = (int)buf;
 1001b00:	4b12      	ldr	r3, [pc, #72]	; (1001b4c <UART_SendBuf+0x8c>)
        DMA_LEN(DMACH_UART0)      = (DMA_LEN(DMACH_UART0) & 0xffff) | len << 16;
 1001b02:	4913      	ldr	r1, [pc, #76]	; (1001b50 <UART_SendBuf+0x90>)
        DMA_SRC_ADDR(DMACH_UART0) = (int)buf;
 1001b04:	601e      	str	r6, [r3, #0]
        DMA_LEN(DMACH_UART0)      = (DMA_LEN(DMACH_UART0) & 0xffff) | len << 16;
 1001b06:	680a      	ldr	r2, [r1, #0]
        DMA_START(DMACH_UART0)    = (1 << DMA_START_BIT);
 1001b08:	4b12      	ldr	r3, [pc, #72]	; (1001b54 <UART_SendBuf+0x94>)
        DMA_LEN(DMACH_UART0)      = (DMA_LEN(DMACH_UART0) & 0xffff) | len << 16;
 1001b0a:	b292      	uxth	r2, r2
 1001b0c:	432a      	orrs	r2, r5
 1001b0e:	600a      	str	r2, [r1, #0]
        DMA_START(DMACH_UART0)    = (1 << DMA_START_BIT);
 1001b10:	2280      	movs	r2, #128	; 0x80
 1001b12:	701a      	strb	r2, [r3, #0]
        while ((!(DMA_STATUS(DMACH_UART0) & 1)));
 1001b14:	2301      	movs	r3, #1
 1001b16:	4910      	ldr	r1, [pc, #64]	; (1001b58 <UART_SendBuf+0x98>)
 1001b18:	680a      	ldr	r2, [r1, #0]
 1001b1a:	421a      	tst	r2, r3
 1001b1c:	d0fc      	beq.n	1001b18 <UART_SendBuf+0x58>
        DMA_SRC_ADDR(DMACH_UART1) = (int)buf;
        DMA_LEN(DMACH_UART1)      = (DMA_LEN(DMACH_UART1) & 0xffff) | len << 16;
        DMA_START(DMACH_UART1)    = (1 << DMA_START_BIT);
        while ((!(DMA_STATUS(DMACH_UART1) & 1)));
    }
}
 1001b1e:	bd70      	pop	{r4, r5, r6, pc}
        DMA_SRC_ADDR(DMACH_UART1) = (int)buf;
 1001b20:	4b0e      	ldr	r3, [pc, #56]	; (1001b5c <UART_SendBuf+0x9c>)
        DMA_LEN(DMACH_UART1)      = (DMA_LEN(DMACH_UART1) & 0xffff) | len << 16;
 1001b22:	490f      	ldr	r1, [pc, #60]	; (1001b60 <UART_SendBuf+0xa0>)
        DMA_SRC_ADDR(DMACH_UART1) = (int)buf;
 1001b24:	601e      	str	r6, [r3, #0]
        DMA_LEN(DMACH_UART1)      = (DMA_LEN(DMACH_UART1) & 0xffff) | len << 16;
 1001b26:	680a      	ldr	r2, [r1, #0]
        DMA_START(DMACH_UART1)    = (1 << DMA_START_BIT);
 1001b28:	4b0e      	ldr	r3, [pc, #56]	; (1001b64 <UART_SendBuf+0xa4>)
        DMA_LEN(DMACH_UART1)      = (DMA_LEN(DMACH_UART1) & 0xffff) | len << 16;
 1001b2a:	b292      	uxth	r2, r2
 1001b2c:	432a      	orrs	r2, r5
 1001b2e:	600a      	str	r2, [r1, #0]
        DMA_START(DMACH_UART1)    = (1 << DMA_START_BIT);
 1001b30:	2280      	movs	r2, #128	; 0x80
 1001b32:	701a      	strb	r2, [r3, #0]
        while ((!(DMA_STATUS(DMACH_UART1) & 1)));
 1001b34:	2301      	movs	r3, #1
 1001b36:	490c      	ldr	r1, [pc, #48]	; (1001b68 <UART_SendBuf+0xa8>)
 1001b38:	680a      	ldr	r2, [r1, #0]
 1001b3a:	421a      	tst	r2, r3
 1001b3c:	d0fc      	beq.n	1001b38 <UART_SendBuf+0x78>
 1001b3e:	e7ee      	b.n	1001b1e <UART_SendBuf+0x5e>
 1001b40:	01005659 	.word	0x01005659
 1001b44:	01005593 	.word	0x01005593
 1001b48:	0000fffe 	.word	0x0000fffe
 1001b4c:	000f8b00 	.word	0x000f8b00
 1001b50:	000f8b08 	.word	0x000f8b08
 1001b54:	000f8b0f 	.word	0x000f8b0f
 1001b58:	000f8b10 	.word	0x000f8b10
 1001b5c:	000f8c00 	.word	0x000f8c00
 1001b60:	000f8c08 	.word	0x000f8c08
 1001b64:	000f8c0f 	.word	0x000f8c0f
 1001b68:	000f8c10 	.word	0x000f8c10

01001b6c <UART_SendData>:

void UART_SendData(UART_TypeDef UARTx, uint8_t Data)
{
 1001b6c:	b082      	sub	sp, #8
    uint8_t buf[1] = {Data};
 1001b6e:	ab01      	add	r3, sp, #4
 1001b70:	7019      	strb	r1, [r3, #0]
 1001b72:	2180      	movs	r1, #128	; 0x80
 1001b74:	0249      	lsls	r1, r1, #9

    if (UARTx == UART0)
 1001b76:	2800      	cmp	r0, #0
 1001b78:	d110      	bne.n	1001b9c <UART_SendData+0x30>
    {
        DMA_SRC_ADDR(DMACH_UART0) = (int)buf;
 1001b7a:	4a10      	ldr	r2, [pc, #64]	; (1001bbc <UART_SendData+0x50>)
        DMA_LEN(DMACH_UART0)      = (DMA_LEN(DMACH_UART0) & 0xffff) | 1 << 16;
 1001b7c:	4810      	ldr	r0, [pc, #64]	; (1001bc0 <UART_SendData+0x54>)
        DMA_SRC_ADDR(DMACH_UART0) = (int)buf;
 1001b7e:	6013      	str	r3, [r2, #0]
        DMA_START(DMACH_UART0)    = (1 << DMA_START_BIT);
 1001b80:	2280      	movs	r2, #128	; 0x80
        DMA_LEN(DMACH_UART0)      = (DMA_LEN(DMACH_UART0) & 0xffff) | 1 << 16;
 1001b82:	6803      	ldr	r3, [r0, #0]
 1001b84:	b29b      	uxth	r3, r3
 1001b86:	430b      	orrs	r3, r1
 1001b88:	6003      	str	r3, [r0, #0]
        DMA_START(DMACH_UART0)    = (1 << DMA_START_BIT);
 1001b8a:	4b0e      	ldr	r3, [pc, #56]	; (1001bc4 <UART_SendData+0x58>)
        while (!(DMA_STATUS(DMACH_UART0) & 1));
 1001b8c:	490e      	ldr	r1, [pc, #56]	; (1001bc8 <UART_SendData+0x5c>)
        DMA_START(DMACH_UART0)    = (1 << DMA_START_BIT);
 1001b8e:	701a      	strb	r2, [r3, #0]
        while (!(DMA_STATUS(DMACH_UART0) & 1));
 1001b90:	2301      	movs	r3, #1
 1001b92:	680a      	ldr	r2, [r1, #0]
 1001b94:	421a      	tst	r2, r3
 1001b96:	d0fc      	beq.n	1001b92 <UART_SendData+0x26>
        DMA_SRC_ADDR(DMACH_UART1) = (int)buf;
        DMA_LEN(DMACH_UART1)      = (DMA_LEN(DMACH_UART1) & 0xffff) | 1 << 16;
        DMA_START(DMACH_UART1)    = (1 << DMA_START_BIT);
        while (!(DMA_STATUS(DMACH_UART1) & 1));
    }
}
 1001b98:	b002      	add	sp, #8
 1001b9a:	4770      	bx	lr
        DMA_SRC_ADDR(DMACH_UART1) = (int)buf;
 1001b9c:	4a0b      	ldr	r2, [pc, #44]	; (1001bcc <UART_SendData+0x60>)
 1001b9e:	6013      	str	r3, [r2, #0]
        DMA_LEN(DMACH_UART1)      = (DMA_LEN(DMACH_UART1) & 0xffff) | 1 << 16;
 1001ba0:	4a0b      	ldr	r2, [pc, #44]	; (1001bd0 <UART_SendData+0x64>)
 1001ba2:	6813      	ldr	r3, [r2, #0]
 1001ba4:	b29b      	uxth	r3, r3
 1001ba6:	430b      	orrs	r3, r1
 1001ba8:	6013      	str	r3, [r2, #0]
        DMA_START(DMACH_UART1)    = (1 << DMA_START_BIT);
 1001baa:	2280      	movs	r2, #128	; 0x80
 1001bac:	4b09      	ldr	r3, [pc, #36]	; (1001bd4 <UART_SendData+0x68>)
        while (!(DMA_STATUS(DMACH_UART1) & 1));
 1001bae:	490a      	ldr	r1, [pc, #40]	; (1001bd8 <UART_SendData+0x6c>)
        DMA_START(DMACH_UART1)    = (1 << DMA_START_BIT);
 1001bb0:	701a      	strb	r2, [r3, #0]
        while (!(DMA_STATUS(DMACH_UART1) & 1));
 1001bb2:	2301      	movs	r3, #1
 1001bb4:	680a      	ldr	r2, [r1, #0]
 1001bb6:	421a      	tst	r2, r3
 1001bb8:	d0fc      	beq.n	1001bb4 <UART_SendData+0x48>
 1001bba:	e7ed      	b.n	1001b98 <UART_SendData+0x2c>
 1001bbc:	000f8b00 	.word	0x000f8b00
 1001bc0:	000f8b08 	.word	0x000f8b08
 1001bc4:	000f8b0f 	.word	0x000f8b0f
 1001bc8:	000f8b10 	.word	0x000f8b10
 1001bcc:	000f8c00 	.word	0x000f8c00
 1001bd0:	000f8c08 	.word	0x000f8c08
 1001bd4:	000f8c0f 	.word	0x000f8c0f
 1001bd8:	000f8c10 	.word	0x000f8c10

01001bdc <UART_SetITTimeout>:

void UART_SetITTimeout(UART_TypeDef UARTx, uint16_t timeout)
{
    if (UART0 == UARTx)
 1001bdc:	2800      	cmp	r0, #0
 1001bde:	d102      	bne.n	1001be6 <UART_SetITTimeout+0xa>
    {
        UART0_INTR = timeout;
 1001be0:	4b02      	ldr	r3, [pc, #8]	; (1001bec <UART_SetITTimeout+0x10>)
    }
    else
    {
        UART1_INTR = timeout;
 1001be2:	6019      	str	r1, [r3, #0]
    }
}
 1001be4:	4770      	bx	lr
        UART1_INTR = timeout;
 1001be6:	4b02      	ldr	r3, [pc, #8]	; (1001bf0 <UART_SetITTimeout+0x14>)
 1001be8:	e7fb      	b.n	1001be2 <UART_SetITTimeout+0x6>
 1001bea:	46c0      	nop			; (mov r8, r8)
 1001bec:	000f8b20 	.word	0x000f8b20
 1001bf0:	000f8c20 	.word	0x000f8c20

01001bf4 <UART_SetRxITNum>:

void UART_SetRxITNum(UART_TypeDef UARTx, uint8_t Bcnt)
{
 1001bf4:	b570      	push	{r4, r5, r6, lr}
 1001bf6:	020c      	lsls	r4, r1, #8
 1001bf8:	4d09      	ldr	r5, [pc, #36]	; (1001c20 <UART_SetRxITNum+0x2c>)
    _ASSERT(IS_UART(UARTx));
 1001bfa:	2801      	cmp	r0, #1
 1001bfc:	d907      	bls.n	1001c0e <UART_SetRxITNum+0x1a>
 1001bfe:	21c7      	movs	r1, #199	; 0xc7
 1001c00:	4a08      	ldr	r2, [pc, #32]	; (1001c24 <UART_SetRxITNum+0x30>)
 1001c02:	0049      	lsls	r1, r1, #1
 1001c04:	4808      	ldr	r0, [pc, #32]	; (1001c28 <UART_SetRxITNum+0x34>)
 1001c06:	f7fe fcf9 	bl	10005fc <_assert_handler>
    {
        UART0_CTRL = (UART0_CTRL & 0xffff00ff) | ((Bcnt & 0xff) << 8);
    }
    else
    {
        UART1_CTRL = (UART1_CTRL & 0xffff00ff) | ((Bcnt & 0xff) << 8);
 1001c0a:	4b08      	ldr	r3, [pc, #32]	; (1001c2c <UART_SetRxITNum+0x38>)
 1001c0c:	e002      	b.n	1001c14 <UART_SetRxITNum+0x20>
    if (UART0 == UARTx)
 1001c0e:	2800      	cmp	r0, #0
 1001c10:	d1fb      	bne.n	1001c0a <UART_SetRxITNum+0x16>
        UART0_CTRL = (UART0_CTRL & 0xffff00ff) | ((Bcnt & 0xff) << 8);
 1001c12:	4b07      	ldr	r3, [pc, #28]	; (1001c30 <UART_SetRxITNum+0x3c>)
        UART1_CTRL = (UART1_CTRL & 0xffff00ff) | ((Bcnt & 0xff) << 8);
 1001c14:	6819      	ldr	r1, [r3, #0]
 1001c16:	4029      	ands	r1, r5
 1001c18:	4321      	orrs	r1, r4
 1001c1a:	6019      	str	r1, [r3, #0]
    }

}
 1001c1c:	bd70      	pop	{r4, r5, r6, pc}
 1001c1e:	46c0      	nop			; (mov r8, r8)
 1001c20:	ffff00ff 	.word	0xffff00ff
 1001c24:	01005666 	.word	0x01005666
 1001c28:	01005593 	.word	0x01005593
 1001c2c:	000f8c1c 	.word	0x000f8c1c
 1001c30:	000f8b1c 	.word	0x000f8b1c

01001c34 <UART_StructInit>:

void UART_StructInit(UART_InitTypeDef *UART_InitStruct)
{
    UART_InitStruct->BaudRate = 9600;
 1001c34:	2296      	movs	r2, #150	; 0x96
    UART_InitStruct->DataBits = Databits_8b;
    UART_InitStruct->FlowCtrl = FlowCtrl_None ;
    UART_InitStruct->Mode = Mode_duplex;
 1001c36:	2300      	movs	r3, #0
    UART_InitStruct->BaudRate = 9600;
 1001c38:	0192      	lsls	r2, r2, #6
    UART_InitStruct->Mode = Mode_duplex;
 1001c3a:	7003      	strb	r3, [r0, #0]
    UART_InitStruct->BaudRate = 9600;
 1001c3c:	6042      	str	r2, [r0, #4]
 1001c3e:	6083      	str	r3, [r0, #8]
    UART_InitStruct->StopBits = StopBits_1;
    UART_InitStruct->Parity = 0;
}
 1001c40:	4770      	bx	lr
	...

01001c44 <UART_ReceiveDataLen>:

uint16_t UART_ReceiveDataLen(UART_TypeDef UARTx)
{
 1001c44:	b510      	push	{r4, lr}
    _ASSERT(IS_UART(UARTx));
 1001c46:	2801      	cmp	r0, #1
 1001c48:	d907      	bls.n	1001c5a <UART_ReceiveDataLen+0x16>
 1001c4a:	21a8      	movs	r1, #168	; 0xa8
 1001c4c:	4a06      	ldr	r2, [pc, #24]	; (1001c68 <UART_ReceiveDataLen+0x24>)
 1001c4e:	31ff      	adds	r1, #255	; 0xff
 1001c50:	4806      	ldr	r0, [pc, #24]	; (1001c6c <UART_ReceiveDataLen+0x28>)
 1001c52:	f7fe fcd3 	bl	10005fc <_assert_handler>
    {
        return (uint16_t)(UART0_STATUS >> 16);
    }
    else
    {
        return (uint16_t)(UART1_STATUS >> 16);
 1001c56:	4b06      	ldr	r3, [pc, #24]	; (1001c70 <UART_ReceiveDataLen+0x2c>)
 1001c58:	e002      	b.n	1001c60 <UART_ReceiveDataLen+0x1c>
    if (UART0 == UARTx)
 1001c5a:	2800      	cmp	r0, #0
 1001c5c:	d1fb      	bne.n	1001c56 <UART_ReceiveDataLen+0x12>
        return (uint16_t)(UART0_STATUS >> 16);
 1001c5e:	4b05      	ldr	r3, [pc, #20]	; (1001c74 <UART_ReceiveDataLen+0x30>)
        return (uint16_t)(UART1_STATUS >> 16);
 1001c60:	6818      	ldr	r0, [r3, #0]
 1001c62:	0c00      	lsrs	r0, r0, #16
    }
}
 1001c64:	bd10      	pop	{r4, pc}
 1001c66:	46c0      	nop			; (mov r8, r8)
 1001c68:	01005676 	.word	0x01005676
 1001c6c:	01005593 	.word	0x01005593
 1001c70:	000f8c28 	.word	0x000f8c28
 1001c74:	000f8b28 	.word	0x000f8b28

01001c78 <lpm_read>:
#include "yc_lpm.h"

uint32_t lpm_read(volatile int *addr)
{
 1001c78:	b510      	push	{r4, lr}
    return ((uint32_t(*)(volatile int *addr))FUNC_LPM_READ_ADDR)(addr);
 1001c7a:	4b01      	ldr	r3, [pc, #4]	; (1001c80 <lpm_read+0x8>)
 1001c7c:	4798      	blx	r3
}
 1001c7e:	bd10      	pop	{r4, pc}
 1001c80:	00004c81 	.word	0x00004c81

01001c84 <lpm_write>:

void lpm_write(volatile int *addr, uint32_t value)
{
 1001c84:	b510      	push	{r4, lr}
    ((void(*)(volatile int *addr, uint32_t value))FUNC_LPM_WRITE_ADDR)(addr, value);
 1001c86:	4b01      	ldr	r3, [pc, #4]	; (1001c8c <lpm_write+0x8>)
 1001c88:	4798      	blx	r3
}
 1001c8a:	bd10      	pop	{r4, pc}
 1001c8c:	00004c9d 	.word	0x00004c9d

01001c90 <lpm_bt_write>:

void lpm_bt_write(uint8_t type, uint32_t val)
{
 1001c90:	b570      	push	{r4, r5, r6, lr}
 1001c92:	000c      	movs	r4, r1
    SYSCTRL_CLK_CLS &= ~(1 << id);
 1001c94:	4a14      	ldr	r2, [pc, #80]	; (1001ce8 <lpm_bt_write+0x58>)
 1001c96:	4915      	ldr	r1, [pc, #84]	; (1001cec <lpm_bt_write+0x5c>)
 1001c98:	6813      	ldr	r3, [r2, #0]
 1001c9a:	0005      	movs	r5, r0
 1001c9c:	400b      	ands	r3, r1
 1001c9e:	6013      	str	r3, [r2, #0]
    //  ((void(*)(uint8_t type,uint32_t val))FUNC_LPM_BT_WRITE_ADDR)(type,val);
    enable_clock(CLKCLS_BT);
    *(volatile uint8_t *)0xc804c = (val & 0x000000ff) >> 0;
 1001ca0:	4b13      	ldr	r3, [pc, #76]	; (1001cf0 <lpm_bt_write+0x60>)
 1001ca2:	b2e2      	uxtb	r2, r4
 1001ca4:	701a      	strb	r2, [r3, #0]
    delay_us(1);
 1001ca6:	2001      	movs	r0, #1
 1001ca8:	f7ff f85c 	bl	1000d64 <delay_us>
    *(volatile uint8_t *)0xc804d = (val & 0x0000ff00) >> 8;
 1001cac:	4a11      	ldr	r2, [pc, #68]	; (1001cf4 <lpm_bt_write+0x64>)
 1001cae:	0a23      	lsrs	r3, r4, #8
 1001cb0:	b2db      	uxtb	r3, r3
 1001cb2:	7013      	strb	r3, [r2, #0]
    delay_us(1);
 1001cb4:	2001      	movs	r0, #1
 1001cb6:	f7ff f855 	bl	1000d64 <delay_us>
    *(volatile uint8_t *)0xc804e = (val & 0x00ff0000) >> 16;
 1001cba:	4a0f      	ldr	r2, [pc, #60]	; (1001cf8 <lpm_bt_write+0x68>)
 1001cbc:	0c23      	lsrs	r3, r4, #16
 1001cbe:	b2db      	uxtb	r3, r3
 1001cc0:	7013      	strb	r3, [r2, #0]
    delay_us(1);
 1001cc2:	2001      	movs	r0, #1
 1001cc4:	f7ff f84e 	bl	1000d64 <delay_us>
    *(volatile uint8_t *)0xc804f = (val & 0xff000000) >> 24;
 1001cc8:	4b0c      	ldr	r3, [pc, #48]	; (1001cfc <lpm_bt_write+0x6c>)
 1001cca:	0e24      	lsrs	r4, r4, #24
 1001ccc:	701c      	strb	r4, [r3, #0]
    delay_us(1);
 1001cce:	2001      	movs	r0, #1
 1001cd0:	f7ff f848 	bl	1000d64 <delay_us>
    *(volatile uint8_t *)0xc8005 = 1 << type;
 1001cd4:	2001      	movs	r0, #1
 1001cd6:	0003      	movs	r3, r0
 1001cd8:	40ab      	lsls	r3, r5
 1001cda:	4a09      	ldr	r2, [pc, #36]	; (1001d00 <lpm_bt_write+0x70>)
 1001cdc:	b2db      	uxtb	r3, r3
 1001cde:	7013      	strb	r3, [r2, #0]
    delay_ms(1);
 1001ce0:	f7ff f846 	bl	1000d70 <delay_ms>
}
 1001ce4:	bd70      	pop	{r4, r5, r6, pc}
 1001ce6:	46c0      	nop			; (mov r8, r8)
 1001ce8:	000f856c 	.word	0x000f856c
 1001cec:	ffffdfff 	.word	0xffffdfff
 1001cf0:	000c804c 	.word	0x000c804c
 1001cf4:	000c804d 	.word	0x000c804d
 1001cf8:	000c804e 	.word	0x000c804e
 1001cfc:	000c804f 	.word	0x000c804f
 1001d00:	000c8005 	.word	0x000c8005

01001d04 <lpm_bt_read>:

uint32_t lpm_bt_read(uint8_t type)
{
    if (type == LPMBT_WKUPLOW || type == LPMBT_WKUPHIGH)
 1001d04:	1e82      	subs	r2, r0, #2
{
 1001d06:	b510      	push	{r4, lr}
 1001d08:	4b03      	ldr	r3, [pc, #12]	; (1001d18 <lpm_bt_read+0x14>)
    if (type == LPMBT_WKUPLOW || type == LPMBT_WKUPHIGH)
 1001d0a:	2a01      	cmp	r2, #1
 1001d0c:	d802      	bhi.n	1001d14 <lpm_bt_read+0x10>
    {
        return (((uint32_t(*)(uint8_t type))FUNC_LPM_BT_READ_ADDR)(type)) >> 2;
 1001d0e:	4798      	blx	r3
 1001d10:	0880      	lsrs	r0, r0, #2
    }
    else
    {
        return (((uint32_t(*)(uint8_t type))FUNC_LPM_BT_READ_ADDR)(type));
    }
}
 1001d12:	bd10      	pop	{r4, pc}
        return (((uint32_t(*)(uint8_t type))FUNC_LPM_BT_READ_ADDR)(type));
 1001d14:	4798      	blx	r3
 1001d16:	e7fc      	b.n	1001d12 <lpm_bt_read+0xe>
 1001d18:	00004d25 	.word	0x00004d25

01001d1c <lpm_sleep>:

void lpm_sleep(void)
{
 1001d1c:	b510      	push	{r4, lr}
    ((void(*)())FUNC_LPM_SLEEP_ADDR)();
 1001d1e:	4b01      	ldr	r3, [pc, #4]	; (1001d24 <lpm_sleep+0x8>)
 1001d20:	4798      	blx	r3
}
 1001d22:	bd10      	pop	{r4, pc}
 1001d24:	00004d69 	.word	0x00004d69

01001d28 <setlpmval>:

void setlpmval(volatile int *addr, uint8_t startbit, uint8_t bitwidth, uint32_t val)
{
 1001d28:	b510      	push	{r4, lr}
    ((void(*)(volatile int *addr, uint8_t startbit, uint8_t bitwidth, uint32_t val))FUNC_SETLPMVAL_ADDR)(addr, startbit, bitwidth, val);
 1001d2a:	4c01      	ldr	r4, [pc, #4]	; (1001d30 <setlpmval+0x8>)
 1001d2c:	47a0      	blx	r4
}
 1001d2e:	bd10      	pop	{r4, pc}
 1001d30:	00004281 	.word	0x00004281

01001d34 <readlpmval>:

uint32_t readlpmval(volatile int *addr, uint8_t startbit, uint8_t bitwidth)
{
 1001d34:	b510      	push	{r4, lr}
 1001d36:	000c      	movs	r4, r1
    uint32_t tmp = 0;
    if (32 == bitwidth)
 1001d38:	2a20      	cmp	r2, #32
 1001d3a:	d103      	bne.n	1001d44 <readlpmval+0x10>
    {
        tmp = lpm_read(addr);
 1001d3c:	f7ff ff9c 	bl	1001c78 <lpm_read>
        return ((tmp >> startbit) & ((1 << bitwidth) - 1));
 1001d40:	40e0      	lsrs	r0, r4
    }
    else
    {
        return lpm_read(addr);
    }
}
 1001d42:	bd10      	pop	{r4, pc}
        return lpm_read(addr);
 1001d44:	f7ff ff98 	bl	1001c78 <lpm_read>
 1001d48:	e7fb      	b.n	1001d42 <readlpmval+0xe>
	...

01001d4c <GPIO_Unused_Pd>:
{
    for (int i = 0; i < 48; i++)
    {
        if (GPIO_CONFIG(i) == 0 || GPIO_CONFIG(i) == 4 || GPIO_CONFIG(i) == 5)
        {
            GPIO_CONFIG(i) |= GPCFG_PD;
 1001d4c:	2080      	movs	r0, #128	; 0x80
{
 1001d4e:	4b0a      	ldr	r3, [pc, #40]	; (1001d78 <GPIO_Unused_Pd+0x2c>)
    for (int i = 0; i < 48; i++)
 1001d50:	490a      	ldr	r1, [pc, #40]	; (1001d7c <GPIO_Unused_Pd+0x30>)
            GPIO_CONFIG(i) |= GPCFG_PD;
 1001d52:	4240      	negs	r0, r0
        if (GPIO_CONFIG(i) == 0 || GPIO_CONFIG(i) == 4 || GPIO_CONFIG(i) == 5)
 1001d54:	781a      	ldrb	r2, [r3, #0]
 1001d56:	2a00      	cmp	r2, #0
 1001d58:	d005      	beq.n	1001d66 <GPIO_Unused_Pd+0x1a>
 1001d5a:	781a      	ldrb	r2, [r3, #0]
 1001d5c:	2a04      	cmp	r2, #4
 1001d5e:	d002      	beq.n	1001d66 <GPIO_Unused_Pd+0x1a>
 1001d60:	781a      	ldrb	r2, [r3, #0]
 1001d62:	2a05      	cmp	r2, #5
 1001d64:	d103      	bne.n	1001d6e <GPIO_Unused_Pd+0x22>
            GPIO_CONFIG(i) |= GPCFG_PD;
 1001d66:	781a      	ldrb	r2, [r3, #0]
 1001d68:	4302      	orrs	r2, r0
 1001d6a:	b2d2      	uxtb	r2, r2
 1001d6c:	701a      	strb	r2, [r3, #0]
 1001d6e:	3301      	adds	r3, #1
    for (int i = 0; i < 48; i++)
 1001d70:	428b      	cmp	r3, r1
 1001d72:	d1ef      	bne.n	1001d54 <GPIO_Unused_Pd+0x8>
        }
    }
}
 1001d74:	4770      	bx	lr
 1001d76:	46c0      	nop			; (mov r8, r8)
 1001d78:	000f8700 	.word	0x000f8700
 1001d7c:	000f8730 	.word	0x000f8730

01001d80 <BT_Hibernate>:
}

void BT_Hibernate(void)
{
#if (VERSIONS == EXIST_BT)
    if(TRUE == ipc_inited)
 1001d80:	4b15      	ldr	r3, [pc, #84]	; (1001dd8 <BT_Hibernate+0x58>)
{
 1001d82:	b513      	push	{r0, r1, r4, lr}
    if(TRUE == ipc_inited)
 1001d84:	781a      	ldrb	r2, [r3, #0]
 1001d86:	2a01      	cmp	r2, #1
 1001d88:	d124      	bne.n	1001dd4 <BT_Hibernate+0x54>
    {
        ipc_inited = FALSE;
 1001d8a:	2200      	movs	r2, #0

        read_otp(0x13e, (uint8_t *)&value_rtc_1s, 2);
 1001d8c:	209f      	movs	r0, #159	; 0x9f
 1001d8e:	4c13      	ldr	r4, [pc, #76]	; (1001ddc <BT_Hibernate+0x5c>)
        ipc_inited = FALSE;
 1001d90:	701a      	strb	r2, [r3, #0]
        read_otp(0x13e, (uint8_t *)&value_rtc_1s, 2);
 1001d92:	0021      	movs	r1, r4
 1001d94:	3202      	adds	r2, #2
 1001d96:	0040      	lsls	r0, r0, #1
 1001d98:	f000 f8ea 	bl	1001f70 <read_otp>
        value_rtc_1s = (value_rtc_1s == 0) ? 0x8000 : value_rtc_1s;
 1001d9c:	6823      	ldr	r3, [r4, #0]
 1001d9e:	2b00      	cmp	r3, #0
 1001da0:	d101      	bne.n	1001da6 <BT_Hibernate+0x26>
 1001da2:	2380      	movs	r3, #128	; 0x80
 1001da4:	021b      	lsls	r3, r3, #8

        BT_CONFIG &= ~(1 << BT_INIT_FLAG);
 1001da6:	217f      	movs	r1, #127	; 0x7f
 1001da8:	4a0d      	ldr	r2, [pc, #52]	; (1001de0 <BT_Hibernate+0x60>)
        value_rtc_1s = (value_rtc_1s == 0) ? 0x8000 : value_rtc_1s;
 1001daa:	6023      	str	r3, [r4, #0]
        BT_CONFIG &= ~(1 << BT_INIT_FLAG);
 1001dac:	7813      	ldrb	r3, [r2, #0]

        NVIC_DisableIRQ(BT_IRQn);
 1001dae:	200b      	movs	r0, #11
        BT_CONFIG &= ~(1 << BT_INIT_FLAG);
 1001db0:	400b      	ands	r3, r1
 1001db2:	7013      	strb	r3, [r2, #0]
        NVIC_DisableIRQ(BT_IRQn);
 1001db4:	f7fe fc62 	bl	100067c <NVIC_DisableIRQ>
        SYSCTRL_ROM_SWITCH = 0x90;
 1001db8:	2290      	movs	r2, #144	; 0x90
 1001dba:	4b0a      	ldr	r3, [pc, #40]	; (1001de4 <BT_Hibernate+0x64>)

        HCI_TypeDef IpcRxData;
        IpcRxData.type = 1;
        IpcRxData.opcode = 0x27;
        IpcRxData.DataLen = 0;
        IPC_TxData(&IpcRxData);
 1001dbc:	4668      	mov	r0, sp
        SYSCTRL_ROM_SWITCH = 0x90;
 1001dbe:	701a      	strb	r2, [r3, #0]
        IpcRxData.type = 1;
 1001dc0:	466a      	mov	r2, sp
 1001dc2:	4b09      	ldr	r3, [pc, #36]	; (1001de8 <BT_Hibernate+0x68>)
 1001dc4:	8013      	strh	r3, [r2, #0]
        IpcRxData.opcode = 0x27;
 1001dc6:	2300      	movs	r3, #0
 1001dc8:	7093      	strb	r3, [r2, #2]
        IPC_TxData(&IpcRxData);
 1001dca:	f7ff f993 	bl	10010f4 <IPC_TxData>
        //delay(10000);
        delay_ms(60);
 1001dce:	203c      	movs	r0, #60	; 0x3c
 1001dd0:	f7fe ffce 	bl	1000d70 <delay_ms>
        delay_us(1000);
        lpm_bt_write(4,0x50000);
        delay_us(1000);
    }
#endif
}
 1001dd4:	bd13      	pop	{r0, r1, r4, pc}
 1001dd6:	46c0      	nop			; (mov r8, r8)
 1001dd8:	00020245 	.word	0x00020245
 1001ddc:	00020a48 	.word	0x00020a48
 1001de0:	000c8043 	.word	0x000c8043
 1001de4:	000f853c 	.word	0x000f853c
 1001de8:	00002701 	.word	0x00002701

01001dec <Chip_Speedstep>:

void Chip_Speedstep(void)
{
 1001dec:	b510      	push	{r4, lr}
    SYSCTRL_HCLKConfig(SYSCTRL_HCLK_Div8);
 1001dee:	200e      	movs	r0, #14
 1001df0:	f000 f916 	bl	1002020 <SYSCTRL_HCLKConfig>
}
 1001df4:	bd10      	pop	{r4, pc}
	...

01001df8 <CM0_Sleep>:

void CM0_Sleep(uint32_t time, GPIO_TypeDef GPIOx, uint16_t GPIO_Pin, uint8_t islow_wakeup, uint8_t is_powerdownbt)
{
 1001df8:	b5f0      	push	{r4, r5, r6, r7, lr}
 1001dfa:	001f      	movs	r7, r3
 1001dfc:	b085      	sub	sp, #20
 1001dfe:	ab0a      	add	r3, sp, #40	; 0x28
 1001e00:	781b      	ldrb	r3, [r3, #0]
 1001e02:	0006      	movs	r6, r0
 1001e04:	000c      	movs	r4, r1
    uint32_t temp;

    SYSCTRL_AHBPeriphClockCmd(SYSCTRL_AHBPeriph_INTR | SYSCTRL_AHBPeriph_SHA | \
 1001e06:	483b      	ldr	r0, [pc, #236]	; (1001ef4 <CM0_Sleep+0xfc>)
 1001e08:	2100      	movs	r1, #0
{
 1001e0a:	0015      	movs	r5, r2
 1001e0c:	9301      	str	r3, [sp, #4]
    SYSCTRL_AHBPeriphClockCmd(SYSCTRL_AHBPeriph_INTR | SYSCTRL_AHBPeriph_SHA | \
 1001e0e:	f000 f8c7 	bl	1001fa0 <SYSCTRL_AHBPeriphClockCmd>
                              SYSCTRL_AHBPeriph_7816 | SYSCTRL_AHBPeriph_SM4 | \
                              SYSCTRL_AHBPeriph_7811 | SYSCTRL_AHBPeriph_ADC7811 | \
                              SYSCTRL_AHBPeriph_CP, DISABLE);

    //DISABLE RTC WAKEUP
    setlpmval(LPM_GPIO_WKHI, 17, 1, 0);
 1001e12:	2201      	movs	r2, #1
 1001e14:	2300      	movs	r3, #0
 1001e16:	2111      	movs	r1, #17
 1001e18:	4837      	ldr	r0, [pc, #220]	; (1001ef8 <CM0_Sleep+0x100>)
 1001e1a:	f7ff ff85 	bl	1001d28 <setlpmval>

    //set gpio wakeup level
    setlpmval(LPM_GPIO_WKHI, 18, 1, islow_wakeup ? 1 : 0);
 1001e1e:	003b      	movs	r3, r7
 1001e20:	2112      	movs	r1, #18
 1001e22:	1e5a      	subs	r2, r3, #1
 1001e24:	4193      	sbcs	r3, r2
 1001e26:	4834      	ldr	r0, [pc, #208]	; (1001ef8 <CM0_Sleep+0x100>)
 1001e28:	2201      	movs	r2, #1
 1001e2a:	f7ff ff7d 	bl	1001d28 <setlpmval>

    //set gpio num
    if (islow_wakeup)
    {
        GPIO_Config(GPIOx, GPIO_Pin, PULL_UP);
 1001e2e:	2240      	movs	r2, #64	; 0x40
    if (islow_wakeup)
 1001e30:	2f00      	cmp	r7, #0
 1001e32:	d100      	bne.n	1001e36 <CM0_Sleep+0x3e>
    }
    else
    {
        GPIO_Config(GPIOx, GPIO_Pin, PULL_DOWN);
 1001e34:	2280      	movs	r2, #128	; 0x80
 1001e36:	0029      	movs	r1, r5
 1001e38:	0020      	movs	r0, r4
 1001e3a:	f7fe fc3f 	bl	10006bc <GPIO_Config>
    }

    if (GPIOx == GPIOA)
 1001e3e:	2c00      	cmp	r4, #0
 1001e40:	d13d      	bne.n	1001ebe <CM0_Sleep+0xc6>
    {
        setlpmval(LPM_GPIO_WKUP, 0, 16, GPIO_Pin);
 1001e42:	002b      	movs	r3, r5
 1001e44:	2210      	movs	r2, #16
 1001e46:	0021      	movs	r1, r4
    }
    else if (GPIOx == GPIOB)
    {
        setlpmval(LPM_GPIO_WKUP, 16, 16, GPIO_Pin);
 1001e48:	482c      	ldr	r0, [pc, #176]	; (1001efc <CM0_Sleep+0x104>)
        setlpmval(LPM_GPIO_WKHI, 0, 16, GPIO_Pin);
    }
    else
    {
        setlpmval(LPM_GPIO_WKUP, 0, 32, 0);
        setlpmval(LPM_GPIO_WKHI, 0, 16, 0);
 1001e4a:	f7ff ff6d 	bl	1001d28 <setlpmval>
    if (value_rtc_1s == 0)
 1001e4e:	4b2c      	ldr	r3, [pc, #176]	; (1001f00 <CM0_Sleep+0x108>)
 1001e50:	681a      	ldr	r2, [r3, #0]
 1001e52:	2a00      	cmp	r2, #0
 1001e54:	d14a      	bne.n	1001eec <CM0_Sleep+0xf4>
        read_otp(0x13e, (uint8_t *)&time, 2);
 1001e56:	209f      	movs	r0, #159	; 0x9f
 1001e58:	3202      	adds	r2, #2
 1001e5a:	a903      	add	r1, sp, #12
 1001e5c:	0040      	lsls	r0, r0, #1
 1001e5e:	f000 f887 	bl	1001f70 <read_otp>
        time = (time == 0) ? 0x8000 : time;
 1001e62:	9b03      	ldr	r3, [sp, #12]
 1001e64:	2b00      	cmp	r3, #0
 1001e66:	d101      	bne.n	1001e6c <CM0_Sleep+0x74>
 1001e68:	2380      	movs	r3, #128	; 0x80
 1001e6a:	021b      	lsls	r3, r3, #8
        time &= (~((uint32_t)0x1 << 31));
 1001e6c:	005b      	lsls	r3, r3, #1
 1001e6e:	085b      	lsrs	r3, r3, #1
        time |= ((uint32_t)0x1 << 31);
 1001e70:	9303      	str	r3, [sp, #12]
    return time;
 1001e72:	9c03      	ldr	r4, [sp, #12]
    }

    temp = get_otp();

    if (time)
 1001e74:	2e00      	cmp	r6, #0
 1001e76:	d017      	beq.n	1001ea8 <CM0_Sleep+0xb0>
    {
        //SET SECMAX
        setlpmval(LPM_SECMAX, 0, 16, temp);
 1001e78:	0023      	movs	r3, r4
 1001e7a:	2210      	movs	r2, #16
 1001e7c:	2100      	movs	r1, #0
 1001e7e:	4821      	ldr	r0, [pc, #132]	; (1001f04 <CM0_Sleep+0x10c>)
 1001e80:	f7ff ff52 	bl	1001d28 <setlpmval>
        //SET SLEEP CNT
        setlpmval(LPM_WKUP_TIMER, 0, 32, time);
 1001e84:	0033      	movs	r3, r6
 1001e86:	2220      	movs	r2, #32
 1001e88:	2100      	movs	r1, #0
 1001e8a:	481f      	ldr	r0, [pc, #124]	; (1001f08 <CM0_Sleep+0x110>)
 1001e8c:	f7ff ff4c 	bl	1001d28 <setlpmval>
        //clr RTC CNT
        setlpmval(LPM_RTC_CNT, 0, 32, 0);
 1001e90:	2300      	movs	r3, #0
 1001e92:	2220      	movs	r2, #32
 1001e94:	0019      	movs	r1, r3
 1001e96:	481d      	ldr	r0, [pc, #116]	; (1001f0c <CM0_Sleep+0x114>)
 1001e98:	f7ff ff46 	bl	1001d28 <setlpmval>
        // ENABLE RTC WAKEUP
        setlpmval(LPM_GPIO_WKHI, 17, 1, 1);
 1001e9c:	2301      	movs	r3, #1
 1001e9e:	2111      	movs	r1, #17
 1001ea0:	001a      	movs	r2, r3
 1001ea2:	4815      	ldr	r0, [pc, #84]	; (1001ef8 <CM0_Sleep+0x100>)
 1001ea4:	f7ff ff40 	bl	1001d28 <setlpmval>
    }

    if (is_powerdownbt == 1 && (temp >> 31) == 0)
 1001ea8:	9b01      	ldr	r3, [sp, #4]
 1001eaa:	2b01      	cmp	r3, #1
 1001eac:	d103      	bne.n	1001eb6 <CM0_Sleep+0xbe>
 1001eae:	2c00      	cmp	r4, #0
 1001eb0:	db01      	blt.n	1001eb6 <CM0_Sleep+0xbe>
    {
        BT_Hibernate();
 1001eb2:	f7ff ff65 	bl	1001d80 <BT_Hibernate>
    }

    lpm_sleep();
 1001eb6:	f7ff ff31 	bl	1001d1c <lpm_sleep>
}
 1001eba:	b005      	add	sp, #20
 1001ebc:	bdf0      	pop	{r4, r5, r6, r7, pc}
    else if (GPIOx == GPIOB)
 1001ebe:	2c01      	cmp	r4, #1
 1001ec0:	d103      	bne.n	1001eca <CM0_Sleep+0xd2>
        setlpmval(LPM_GPIO_WKUP, 16, 16, GPIO_Pin);
 1001ec2:	2210      	movs	r2, #16
 1001ec4:	002b      	movs	r3, r5
 1001ec6:	0011      	movs	r1, r2
 1001ec8:	e7be      	b.n	1001e48 <CM0_Sleep+0x50>
    else if (GPIOx == GPIOC)
 1001eca:	2c02      	cmp	r4, #2
 1001ecc:	d104      	bne.n	1001ed8 <CM0_Sleep+0xe0>
        setlpmval(LPM_GPIO_WKHI, 0, 16, GPIO_Pin);
 1001ece:	002b      	movs	r3, r5
 1001ed0:	2210      	movs	r2, #16
 1001ed2:	2100      	movs	r1, #0
        setlpmval(LPM_GPIO_WKHI, 0, 16, 0);
 1001ed4:	4808      	ldr	r0, [pc, #32]	; (1001ef8 <CM0_Sleep+0x100>)
 1001ed6:	e7b8      	b.n	1001e4a <CM0_Sleep+0x52>
        setlpmval(LPM_GPIO_WKUP, 0, 32, 0);
 1001ed8:	2300      	movs	r3, #0
 1001eda:	2220      	movs	r2, #32
 1001edc:	0019      	movs	r1, r3
 1001ede:	4807      	ldr	r0, [pc, #28]	; (1001efc <CM0_Sleep+0x104>)
 1001ee0:	f7ff ff22 	bl	1001d28 <setlpmval>
        setlpmval(LPM_GPIO_WKHI, 0, 16, 0);
 1001ee4:	2300      	movs	r3, #0
 1001ee6:	2210      	movs	r2, #16
 1001ee8:	0019      	movs	r1, r3
 1001eea:	e7f3      	b.n	1001ed4 <CM0_Sleep+0xdc>
        time |= ((uint32_t)0x1 << 31);
 1001eec:	2380      	movs	r3, #128	; 0x80
 1001eee:	061b      	lsls	r3, r3, #24
 1001ef0:	4313      	orrs	r3, r2
 1001ef2:	e7bd      	b.n	1001e70 <CM0_Sleep+0x78>
 1001ef4:	000757fe 	.word	0x000757fe
 1001ef8:	000f8414 	.word	0x000f8414
 1001efc:	000f8410 	.word	0x000f8410
 1001f00:	00020a48 	.word	0x00020a48
 1001f04:	000f840c 	.word	0x000f840c
 1001f08:	000f8408 	.word	0x000f8408
 1001f0c:	000f847c 	.word	0x000f847c

01001f10 <enable_gpio_32>:

void enable_gpio_32(void)
{
 1001f10:	b510      	push	{r4, lr}
    uint32_t value = lpm_bt_read(LPMBT_CONTROL1);
 1001f12:	2001      	movs	r0, #1
 1001f14:	f7ff fef6 	bl	1001d04 <lpm_bt_read>
    value &= ~(1<<17);
 1001f18:	4902      	ldr	r1, [pc, #8]	; (1001f24 <enable_gpio_32+0x14>)
 1001f1a:	4001      	ands	r1, r0
    lpm_bt_write(LPMBT_CONTROL1, value);
 1001f1c:	2001      	movs	r0, #1
 1001f1e:	f7ff feb7 	bl	1001c90 <lpm_bt_write>
}
 1001f22:	bd10      	pop	{r4, pc}
 1001f24:	fffdffff 	.word	0xfffdffff

01001f28 <deinit_otp>:
 * @brief:  OTP deint
 * @param:  none
 * @return: none
 */
void deinit_otp(void)
{
 1001f28:	b510      	push	{r4, lr}
    ((void(*)())FUNC_DEINIT_OTP_ADDR)();
 1001f2a:	4b01      	ldr	r3, [pc, #4]	; (1001f30 <deinit_otp+0x8>)
 1001f2c:	4798      	blx	r3
}
 1001f2e:	bd10      	pop	{r4, pc}
 1001f30:	00004481 	.word	0x00004481

01001f34 <init_otp>:
 * @brief:  OTP init
 * @param:  none
 * @return: none
 */
void init_otp(void)
{
 1001f34:	b510      	push	{r4, lr}
    ((void(*)())FUNC_INIT_OTP_ADDR)();
 1001f36:	4b01      	ldr	r3, [pc, #4]	; (1001f3c <init_otp+0x8>)
 1001f38:	4798      	blx	r3
}
 1001f3a:	bd10      	pop	{r4, pc}
 1001f3c:	0000442d 	.word	0x0000442d

01001f40 <read_chip_life>:

uint32_t read_chip_life(void)
{
 1001f40:	b510      	push	{r4, lr}
    uint32_t life = 0;
    init_otp();
 1001f42:	f7ff fff7 	bl	1001f34 <init_otp>
    life = ((uint32_t(*)(void))FUNC_READ_CHIPLF_ADDR)();
 1001f46:	4b03      	ldr	r3, [pc, #12]	; (1001f54 <read_chip_life+0x14>)
 1001f48:	4798      	blx	r3
 1001f4a:	0004      	movs	r4, r0
    deinit_otp();
 1001f4c:	f7ff ffec 	bl	1001f28 <deinit_otp>
    return life;
}
 1001f50:	0020      	movs	r0, r4
 1001f52:	bd10      	pop	{r4, pc}
 1001f54:	000045e7 	.word	0x000045e7

01001f58 <read_chipid>:

void read_chipid(uint8_t *id)
{
 1001f58:	b510      	push	{r4, lr}
 1001f5a:	0004      	movs	r4, r0
    init_otp();
 1001f5c:	f7ff ffea 	bl	1001f34 <init_otp>
    ((void(*)(uint8_t *id))FUNC_READ_CHIPID_ADDR)(id);
 1001f60:	0020      	movs	r0, r4
 1001f62:	4b02      	ldr	r3, [pc, #8]	; (1001f6c <read_chipid+0x14>)
 1001f64:	4798      	blx	r3
    deinit_otp();
 1001f66:	f7ff ffdf 	bl	1001f28 <deinit_otp>
}
 1001f6a:	bd10      	pop	{r4, pc}
 1001f6c:	000045d9 	.word	0x000045d9

01001f70 <read_otp>:
 * @param:  *data
 * @param:  len
 * @return: none
 */
uint8_t read_otp(uint32_t addr, uint8_t *data, uint32_t len)
{
 1001f70:	b570      	push	{r4, r5, r6, lr}
 1001f72:	000d      	movs	r5, r1
 1001f74:	0016      	movs	r6, r2
 1001f76:	0004      	movs	r4, r0
    init_otp();
 1001f78:	f7ff ffdc 	bl	1001f34 <init_otp>
    ((uint8_t(*)(uint32_t addr, uint8_t *data, uint32_t len))FUNC_READ_OTP_ADDR)(addr, data, len);
 1001f7c:	0032      	movs	r2, r6
 1001f7e:	0029      	movs	r1, r5
 1001f80:	4b03      	ldr	r3, [pc, #12]	; (1001f90 <read_otp+0x20>)
 1001f82:	0020      	movs	r0, r4
 1001f84:	4798      	blx	r3
    deinit_otp();
 1001f86:	f7ff ffcf 	bl	1001f28 <deinit_otp>
    return SUCCESS;
}
 1001f8a:	2001      	movs	r0, #1
 1001f8c:	bd70      	pop	{r4, r5, r6, pc}
 1001f8e:	46c0      	nop			; (mov r8, r8)
 1001f90:	0000449d 	.word	0x0000449d

01001f94 <write_otp>:
 * @param:  *data
 * @param:  len
 * @return: SUCCESS or ERROR
 */
uint8_t write_otp(uint32_t addr, uint8_t *data, uint32_t len)
{
 1001f94:	b510      	push	{r4, lr}
    uint8_t rtn = 0;

    //step2:
    rtn = ((uint8_t(*)(uint32_t addr, uint8_t *data, uint32_t len))FUNC_WRITE_OTP_ADDR)(addr, data, len);
 1001f96:	4b01      	ldr	r3, [pc, #4]	; (1001f9c <write_otp+0x8>)
 1001f98:	4798      	blx	r3

    return rtn;
}
 1001f9a:	bd10      	pop	{r4, pc}
 1001f9c:	00004595 	.word	0x00004595

01001fa0 <SYSCTRL_AHBPeriphClockCmd>:
#include "yc_sysctrl.h"

void SYSCTRL_AHBPeriphClockCmd(uint32_t SYSCTRL_AHBPeriph, FunctionalState NewState)
{
    _ASSERT(IS_SYSCTRL_AHB_PERIPH(SYSCTRL_AHBPeriph));
 1001fa0:	4b0a      	ldr	r3, [pc, #40]	; (1001fcc <SYSCTRL_AHBPeriphClockCmd+0x2c>)
{
 1001fa2:	b570      	push	{r4, r5, r6, lr}
 1001fa4:	0004      	movs	r4, r0
 1001fa6:	000d      	movs	r5, r1
    _ASSERT(IS_SYSCTRL_AHB_PERIPH(SYSCTRL_AHBPeriph));
 1001fa8:	4218      	tst	r0, r3
 1001faa:	d104      	bne.n	1001fb6 <SYSCTRL_AHBPeriphClockCmd+0x16>
 1001fac:	4a08      	ldr	r2, [pc, #32]	; (1001fd0 <SYSCTRL_AHBPeriphClockCmd+0x30>)
 1001fae:	2105      	movs	r1, #5
 1001fb0:	4808      	ldr	r0, [pc, #32]	; (1001fd4 <SYSCTRL_AHBPeriphClockCmd+0x34>)
 1001fb2:	f7fe fb23 	bl	10005fc <_assert_handler>
 1001fb6:	4b08      	ldr	r3, [pc, #32]	; (1001fd8 <SYSCTRL_AHBPeriphClockCmd+0x38>)
    if (NewState == DISABLE)
    {
        SYSCTRL_CLK_CLS |= SYSCTRL_AHBPeriph;
 1001fb8:	681a      	ldr	r2, [r3, #0]
    if (NewState == DISABLE)
 1001fba:	2d00      	cmp	r5, #0
 1001fbc:	d102      	bne.n	1001fc4 <SYSCTRL_AHBPeriphClockCmd+0x24>
        SYSCTRL_CLK_CLS |= SYSCTRL_AHBPeriph;
 1001fbe:	4314      	orrs	r4, r2
 1001fc0:	601c      	str	r4, [r3, #0]
    }
    else
    {
        SYSCTRL_CLK_CLS &= ~SYSCTRL_AHBPeriph;
    }
}
 1001fc2:	bd70      	pop	{r4, r5, r6, pc}
        SYSCTRL_CLK_CLS &= ~SYSCTRL_AHBPeriph;
 1001fc4:	43a2      	bics	r2, r4
 1001fc6:	601a      	str	r2, [r3, #0]
}
 1001fc8:	e7fb      	b.n	1001fc2 <SYSCTRL_AHBPeriphClockCmd+0x22>
 1001fca:	46c0      	nop			; (mov r8, r8)
 1001fcc:	0007fffe 	.word	0x0007fffe
 1001fd0:	010056b4 	.word	0x010056b4
 1001fd4:	0100568a 	.word	0x0100568a
 1001fd8:	000f856c 	.word	0x000f856c

01001fdc <SYSCTRL_EnterSleep>:

void SYSCTRL_EnterSleep(SleepMode_TypeDef SleepMode)
{
 1001fdc:	b510      	push	{r4, lr}
    _ASSERT(IS_ALL_SLEEP_MODE(SleepMode));
 1001fde:	2802      	cmp	r0, #2
 1001fe0:	d004      	beq.n	1001fec <SYSCTRL_EnterSleep+0x10>
 1001fe2:	4a04      	ldr	r2, [pc, #16]	; (1001ff4 <SYSCTRL_EnterSleep+0x18>)
 1001fe4:	2112      	movs	r1, #18
 1001fe6:	4804      	ldr	r0, [pc, #16]	; (1001ff8 <SYSCTRL_EnterSleep+0x1c>)
 1001fe8:	f7fe fb08 	bl	10005fc <_assert_handler>
    *LPM_SLEEP = 0x5a;
 1001fec:	225a      	movs	r2, #90	; 0x5a
 1001fee:	4b03      	ldr	r3, [pc, #12]	; (1001ffc <SYSCTRL_EnterSleep+0x20>)
 1001ff0:	601a      	str	r2, [r3, #0]
}
 1001ff2:	bd10      	pop	{r4, pc}
 1001ff4:	010056ce 	.word	0x010056ce
 1001ff8:	0100568a 	.word	0x0100568a
 1001ffc:	000f8420 	.word	0x000f8420

01002000 <HCLKConfig_Div_None>:

void __NOINLINE HCLKConfig_Div_None(uint32_t HCLK_Div)
{
    QSPI_CTRL  |= (0x80);
 1002000:	2380      	movs	r3, #128	; 0x80
 1002002:	4a05      	ldr	r2, [pc, #20]	; (1002018 <HCLKConfig_Div_None+0x18>)
 1002004:	6811      	ldr	r1, [r2, #0]
 1002006:	430b      	orrs	r3, r1
    int temp = (SYSCTRL_HCLK_CON & (~SYSCTRL_HCLK_COFG_REGBIT)) | HCLK_Div;
 1002008:	210f      	movs	r1, #15
    QSPI_CTRL  |= (0x80);
 100200a:	6013      	str	r3, [r2, #0]
    int temp = (SYSCTRL_HCLK_CON & (~SYSCTRL_HCLK_COFG_REGBIT)) | HCLK_Div;
 100200c:	4a03      	ldr	r2, [pc, #12]	; (100201c <HCLKConfig_Div_None+0x1c>)
 100200e:	6813      	ldr	r3, [r2, #0]
 1002010:	438b      	bics	r3, r1
 1002012:	4318      	orrs	r0, r3
    SYSCTRL_HCLK_CON =  temp;
 1002014:	6010      	str	r0, [r2, #0]
}
 1002016:	4770      	bx	lr
 1002018:	000f881c 	.word	0x000f881c
 100201c:	000f8560 	.word	0x000f8560

01002020 <SYSCTRL_HCLKConfig>:

void SYSCTRL_HCLKConfig(uint32_t HCLK_Div)
{
    _ASSERT(IS_GET_SYSCTRL_HCLK_DIV(HCLK_Div));
 1002020:	2302      	movs	r3, #2
 1002022:	0002      	movs	r2, r0
{
 1002024:	b510      	push	{r4, lr}
    _ASSERT(IS_GET_SYSCTRL_HCLK_DIV(HCLK_Div));
 1002026:	439a      	bics	r2, r3
{
 1002028:	0004      	movs	r4, r0
    _ASSERT(IS_GET_SYSCTRL_HCLK_DIV(HCLK_Div));
 100202a:	2a00      	cmp	r2, #0
 100202c:	d009      	beq.n	1002042 <SYSCTRL_HCLKConfig+0x22>
 100202e:	2308      	movs	r3, #8
 1002030:	0002      	movs	r2, r0
 1002032:	439a      	bics	r2, r3
 1002034:	2a06      	cmp	r2, #6
 1002036:	d004      	beq.n	1002042 <SYSCTRL_HCLKConfig+0x22>
 1002038:	4a0c      	ldr	r2, [pc, #48]	; (100206c <SYSCTRL_HCLKConfig+0x4c>)
 100203a:	211f      	movs	r1, #31
 100203c:	480c      	ldr	r0, [pc, #48]	; (1002070 <SYSCTRL_HCLKConfig+0x50>)
 100203e:	f7fe fadd 	bl	10005fc <_assert_handler>
    __asm("CPSID i");
 1002042:	b672      	cpsid	i
    if (HCLK_Div == SYSCTRL_HCLK_Div_None)
 1002044:	2c00      	cmp	r4, #0
 1002046:	d109      	bne.n	100205c <SYSCTRL_HCLKConfig+0x3c>
    {
        uint32_t HCLKConfig_Div_None_addr = (uint32_t)HCLKConfig_Div_None;
        ((void(*)(void *, void *))FUNC_PREFETCH)(((uint32_t *)HCLKConfig_Div_None_addr), ((uint32_t *)(HCLKConfig_Div_None_addr + 64)));
 1002048:	480a      	ldr	r0, [pc, #40]	; (1002074 <SYSCTRL_HCLKConfig+0x54>)
 100204a:	4b0b      	ldr	r3, [pc, #44]	; (1002078 <SYSCTRL_HCLKConfig+0x58>)
 100204c:	0001      	movs	r1, r0
 100204e:	3140      	adds	r1, #64	; 0x40
 1002050:	4798      	blx	r3
        HCLKConfig_Div_None(HCLK_Div);
 1002052:	0020      	movs	r0, r4
 1002054:	f7ff ffd4 	bl	1002000 <HCLKConfig_Div_None>
    else
    {
        int temp = (SYSCTRL_HCLK_CON & (~SYSCTRL_HCLK_COFG_REGBIT)) | HCLK_Div;
        SYSCTRL_HCLK_CON =  temp;
    }
    __asm("CPSIE i");
 1002058:	b662      	cpsie	i
}
 100205a:	bd10      	pop	{r4, pc}
        int temp = (SYSCTRL_HCLK_CON & (~SYSCTRL_HCLK_COFG_REGBIT)) | HCLK_Div;
 100205c:	220f      	movs	r2, #15
 100205e:	4b07      	ldr	r3, [pc, #28]	; (100207c <SYSCTRL_HCLKConfig+0x5c>)
 1002060:	6818      	ldr	r0, [r3, #0]
 1002062:	4390      	bics	r0, r2
 1002064:	4320      	orrs	r0, r4
        SYSCTRL_HCLK_CON =  temp;
 1002066:	6018      	str	r0, [r3, #0]
 1002068:	e7f6      	b.n	1002058 <SYSCTRL_HCLKConfig+0x38>
 100206a:	46c0      	nop			; (mov r8, r8)
 100206c:	010056e1 	.word	0x010056e1
 1002070:	0100568a 	.word	0x0100568a
 1002074:	01002001 	.word	0x01002001
 1002078:	00004405 	.word	0x00004405
 100207c:	000f8560 	.word	0x000f8560

01002080 <SYSCTRL_GetClocksFreq>:

void SYSCTRL_GetClocksFreq(SYSCTRL_ClocksTypeDef *SYSCTRL_Clocks)
{
    SYSCTRL_Clocks->HCLK_Frequency = CPU_MHZ;
 1002080:	4b05      	ldr	r3, [pc, #20]	; (1002098 <SYSCTRL_GetClocksFreq+0x18>)
{
 1002082:	b510      	push	{r4, lr}
    SYSCTRL_Clocks->HCLK_Frequency = CPU_MHZ;
 1002084:	6819      	ldr	r1, [r3, #0]
 1002086:	230f      	movs	r3, #15
 1002088:	4019      	ands	r1, r3
{
 100208a:	0004      	movs	r4, r0
    SYSCTRL_Clocks->HCLK_Frequency = CPU_MHZ;
 100208c:	3102      	adds	r1, #2
 100208e:	4803      	ldr	r0, [pc, #12]	; (100209c <SYSCTRL_GetClocksFreq+0x1c>)
 1002090:	f001 ffd6 	bl	1004040 <__divsi3>
 1002094:	6020      	str	r0, [r4, #0]
}
 1002096:	bd10      	pop	{r4, pc}
 1002098:	000f8560 	.word	0x000f8560
 100209c:	0b71b000 	.word	0x0b71b000

010020a0 <SYSCTRL_EnableDpllClk>:
 10020a0:	4a0e      	ldr	r2, [pc, #56]	; (10020dc <SYSCTRL_EnableDpllClk+0x3c>)
 10020a2:	490f      	ldr	r1, [pc, #60]	; (10020e0 <SYSCTRL_EnableDpllClk+0x40>)
 10020a4:	6813      	ldr	r3, [r2, #0]

void SYSCTRL_EnableDpllClk(void)
{
 10020a6:	b510      	push	{r4, lr}
 10020a8:	400b      	ands	r3, r1
 10020aa:	6013      	str	r3, [r2, #0]
    enable_clock(CLKCLS_BT);
    SYSCTRL_ROM_SWITCH = 0x94;
    delay(500);
 10020ac:	20fa      	movs	r0, #250	; 0xfa
    SYSCTRL_ROM_SWITCH = 0x94;
 10020ae:	2294      	movs	r2, #148	; 0x94
 10020b0:	4b0c      	ldr	r3, [pc, #48]	; (10020e4 <SYSCTRL_EnableDpllClk+0x44>)
    delay(500);
 10020b2:	0040      	lsls	r0, r0, #1
    SYSCTRL_ROM_SWITCH = 0x94;
 10020b4:	701a      	strb	r2, [r3, #0]
    delay(500);
 10020b6:	f7fe f946 	bl	1000346 <delay>

    *(volatile byte *)0xc4ab1 = 0x7f;
 10020ba:	227f      	movs	r2, #127	; 0x7f
 10020bc:	4b0a      	ldr	r3, [pc, #40]	; (10020e8 <SYSCTRL_EnableDpllClk+0x48>)
    *(volatile byte *)0xc4ab2 = 0xff;
    *(volatile byte *)0xc4ab3 = 0xff;

    *(volatile byte *)0xc40c3 = 0xb1;
 10020be:	21b1      	movs	r1, #177	; 0xb1
    *(volatile byte *)0xc4ab1 = 0x7f;
 10020c0:	701a      	strb	r2, [r3, #0]
    *(volatile byte *)0xc4ab2 = 0xff;
 10020c2:	23ff      	movs	r3, #255	; 0xff
 10020c4:	4a09      	ldr	r2, [pc, #36]	; (10020ec <SYSCTRL_EnableDpllClk+0x4c>)
 10020c6:	7013      	strb	r3, [r2, #0]
    *(volatile byte *)0xc4ab3 = 0xff;
 10020c8:	4a09      	ldr	r2, [pc, #36]	; (10020f0 <SYSCTRL_EnableDpllClk+0x50>)
 10020ca:	7013      	strb	r3, [r2, #0]
    *(volatile byte *)0xc40c3 = 0xb1;
 10020cc:	4a09      	ldr	r2, [pc, #36]	; (10020f4 <SYSCTRL_EnableDpllClk+0x54>)
 10020ce:	7011      	strb	r1, [r2, #0]
    *(volatile byte *)0xc40c4 = 0x4a;
 10020d0:	4a09      	ldr	r2, [pc, #36]	; (10020f8 <SYSCTRL_EnableDpllClk+0x58>)
 10020d2:	3967      	subs	r1, #103	; 0x67
 10020d4:	7011      	strb	r1, [r2, #0]

    BT_CLKPLL_EN = 0xff;
 10020d6:	4a09      	ldr	r2, [pc, #36]	; (10020fc <SYSCTRL_EnableDpllClk+0x5c>)
 10020d8:	7013      	strb	r3, [r2, #0]
}
 10020da:	bd10      	pop	{r4, pc}
 10020dc:	000f856c 	.word	0x000f856c
 10020e0:	ffffdfff 	.word	0xffffdfff
 10020e4:	000f853c 	.word	0x000f853c
 10020e8:	000c4ab1 	.word	0x000c4ab1
 10020ec:	000c4ab2 	.word	0x000c4ab2
 10020f0:	000c4ab3 	.word	0x000c4ab3
 10020f4:	000c40c3 	.word	0x000c40c3
 10020f8:	000c40c4 	.word	0x000c40c4
 10020fc:	000c8905 	.word	0x000c8905

01002100 <USB_OTG_WritePacket>:

USB_OTG_STS USB_OTG_WritePacket(USB_OTG_CORE_HANDLE *pdev,
                                uint8_t             *src,
                                uint8_t             ch_ep_num,
                                uint8_t            len)
{
 1002100:	b510      	push	{r4, lr}
    USB_OTG_STS status = USB_OTG_OK;
    uint8_t i = 0;

    if (pdev->cfg.dma_enable == 0)
 1002102:	78c4      	ldrb	r4, [r0, #3]
 1002104:	2c00      	cmp	r4, #0
 1002106:	d105      	bne.n	1002114 <USB_OTG_WritePacket+0x14>
    {
        for (i = 0; i < len; i++)
        {
            USB_OTG_WRITE_REG8(pdev->regs.ep[ch_ep_num], *src++);
 1002108:	3204      	adds	r2, #4
 100210a:	0092      	lsls	r2, r2, #2
 100210c:	18cb      	adds	r3, r1, r3
 100210e:	1882      	adds	r2, r0, r2
        for (i = 0; i < len; i++)
 1002110:	4299      	cmp	r1, r3
 1002112:	d101      	bne.n	1002118 <USB_OTG_WritePacket+0x18>
        }
    }

    return status;
}
 1002114:	2000      	movs	r0, #0
 1002116:	bd10      	pop	{r4, pc}
            USB_OTG_WRITE_REG8(pdev->regs.ep[ch_ep_num], *src++);
 1002118:	7808      	ldrb	r0, [r1, #0]
 100211a:	6854      	ldr	r4, [r2, #4]
 100211c:	3101      	adds	r1, #1
 100211e:	7020      	strb	r0, [r4, #0]
 1002120:	e7f6      	b.n	1002110 <USB_OTG_WritePacket+0x10>
	...

01002124 <USB_OTG_ReadPacket>:
    uint8_t i = 0;
    uint8_t count8b = len ;
    uint8_t *data_buff = (uint8_t *)dest;
    for (i = 0; i < count8b; i++, data_buff++)
    {
        *data_buff = USB_OTG_READ_REG8(CORE_USB_EP(ch_ep_num));
 1002124:	4804      	ldr	r0, [pc, #16]	; (1002138 <USB_OTG_ReadPacket+0x14>)
 1002126:	18cb      	adds	r3, r1, r3
 1002128:	1812      	adds	r2, r2, r0
    for (i = 0; i < count8b; i++, data_buff++)
 100212a:	4299      	cmp	r1, r3
 100212c:	d100      	bne.n	1002130 <USB_OTG_ReadPacket+0xc>
    }
}
 100212e:	4770      	bx	lr
        *data_buff = USB_OTG_READ_REG8(CORE_USB_EP(ch_ep_num));
 1002130:	7810      	ldrb	r0, [r2, #0]
 1002132:	7008      	strb	r0, [r1, #0]
    for (i = 0; i < count8b; i++, data_buff++)
 1002134:	3101      	adds	r1, #1
 1002136:	e7f8      	b.n	100212a <USB_OTG_ReadPacket+0x6>
 1002138:	000f6018 	.word	0x000f6018

0100213c <USB_OTG_SelectCore>:
#else
    pdev->cfg.dma_enable       = 0;
#endif

    /* at startup the core is in FS mode */
    pdev->cfg.speed            = USB_OTG_SPEED_FULL;
 100213c:	2301      	movs	r3, #1
 100213e:	8043      	strh	r3, [r0, #2]
    pdev->cfg.dma_enable       = 0;
 1002140:	333f      	adds	r3, #63	; 0x3f
 1002142:	8083      	strh	r3, [r0, #4]
    pdev->cfg.mps              = USB_OTG_FS_MAX_PACKET_SIZE ;


    /* initialize device cfg following its address */
    if (coreID == USB_OTG_FS_CORE_ID)
 1002144:	2901      	cmp	r1, #1
 1002146:	d11e      	bne.n	1002186 <USB_OTG_SelectCore+0x4a>
    {
        baseAddress                = USB_OTG_FS_BASE_ADDR;
        pdev->cfg.coreID           = USB_OTG_FS_CORE_ID;
        pdev->cfg.dev_endpoints    = 4 ;
 1002148:	2204      	movs	r2, #4
        pdev->cfg.TotalFifoSize    = 64; /* in 8-bits */
 100214a:	80c3      	strh	r3, [r0, #6]
        pdev->cfg.phy_itface       = USB_OTG_EMBEDDED_PHY;
 100214c:	3b3e      	subs	r3, #62	; 0x3e
        pdev->cfg.coreID           = USB_OTG_FS_CORE_ID;
 100214e:	72c1      	strb	r1, [r0, #11]
        pdev->cfg.dev_endpoints    = 4 ;
 1002150:	7042      	strb	r2, [r0, #1]
        pdev->cfg.phy_itface       = USB_OTG_EMBEDDED_PHY;
 1002152:	7203      	strb	r3, [r0, #8]
        pdev->cfg.low_power        = 1;
#endif
    }

    /* Common USB Registers */
    pdev ->regs.CTRLREGS = (USB_OTG_CTRLREGS *)CORE_USB_CONFIG;
 1002154:	23f6      	movs	r3, #246	; 0xf6
 1002156:	031b      	lsls	r3, r3, #12
 1002158:	60c3      	str	r3, [r0, #12]
    pdev ->regs.xferctl = (USB_OTG_XFERCTL *)CORE_USB_TRIG;
 100215a:	4b10      	ldr	r3, [pc, #64]	; (100219c <USB_OTG_SelectCore+0x60>)
 100215c:	6103      	str	r3, [r0, #16]
    /* FIFOS */
    for (i = 0; i < NUM_EP_FIFO; i++)
    {
        pdev->regs.ep[i] = (uint8_t *)(CORE_USB_EP(i));
 100215e:	4b10      	ldr	r3, [pc, #64]	; (10021a0 <USB_OTG_SelectCore+0x64>)
 1002160:	6143      	str	r3, [r0, #20]
 1002162:	4b10      	ldr	r3, [pc, #64]	; (10021a4 <USB_OTG_SelectCore+0x68>)
 1002164:	6183      	str	r3, [r0, #24]
 1002166:	4b10      	ldr	r3, [pc, #64]	; (10021a8 <USB_OTG_SelectCore+0x6c>)
 1002168:	61c3      	str	r3, [r0, #28]
 100216a:	4b10      	ldr	r3, [pc, #64]	; (10021ac <USB_OTG_SelectCore+0x70>)
 100216c:	6203      	str	r3, [r0, #32]
    }
    /* fifo len*/
    for (i = 0; i < NUM_EP_FIFO; i++)
    {
        pdev->regs.LENREGS[i] = (uint8_t *)(CORE_USB_EP_LEN(i));
 100216e:	4b10      	ldr	r3, [pc, #64]	; (10021b0 <USB_OTG_SelectCore+0x74>)
 1002170:	6243      	str	r3, [r0, #36]	; 0x24
 1002172:	4b10      	ldr	r3, [pc, #64]	; (10021b4 <USB_OTG_SelectCore+0x78>)
 1002174:	6283      	str	r3, [r0, #40]	; 0x28
 1002176:	4b10      	ldr	r3, [pc, #64]	; (10021b8 <USB_OTG_SelectCore+0x7c>)
 1002178:	62c3      	str	r3, [r0, #44]	; 0x2c
 100217a:	4b10      	ldr	r3, [pc, #64]	; (10021bc <USB_OTG_SelectCore+0x80>)
 100217c:	6303      	str	r3, [r0, #48]	; 0x30
    }
    pdev ->regs.STATUSEGS = (USB_OTG_STATUSREGS *)CORE_USB_STALL_STATUS;
 100217e:	4b10      	ldr	r3, [pc, #64]	; (10021c0 <USB_OTG_SelectCore+0x84>)
 1002180:	6343      	str	r3, [r0, #52]	; 0x34
    return status;
}
 1002182:	2000      	movs	r0, #0
 1002184:	4770      	bx	lr
    else if (coreID == USB_OTG_HS_CORE_ID)
 1002186:	2900      	cmp	r1, #0
 1002188:	d1e4      	bne.n	1002154 <USB_OTG_SelectCore+0x18>
        pdev->cfg.host_channels    = 8 ;
 100218a:	2381      	movs	r3, #129	; 0x81
 100218c:	00db      	lsls	r3, r3, #3
 100218e:	8003      	strh	r3, [r0, #0]
        pdev->cfg.TotalFifoSize    = 512;/* in 8-bits */
 1002190:	2380      	movs	r3, #128	; 0x80
 1002192:	009b      	lsls	r3, r3, #2
        pdev->cfg.coreID           = USB_OTG_HS_CORE_ID;
 1002194:	72c1      	strb	r1, [r0, #11]
        pdev->cfg.TotalFifoSize    = 512;/* in 8-bits */
 1002196:	80c3      	strh	r3, [r0, #6]
 1002198:	e7dc      	b.n	1002154 <USB_OTG_SelectCore+0x18>
 100219a:	46c0      	nop			; (mov r8, r8)
 100219c:	000f6010 	.word	0x000f6010
 10021a0:	000f6018 	.word	0x000f6018
 10021a4:	000f6019 	.word	0x000f6019
 10021a8:	000f601a 	.word	0x000f601a
 10021ac:	000f601b 	.word	0x000f601b
 10021b0:	000f6020 	.word	0x000f6020
 10021b4:	000f6021 	.word	0x000f6021
 10021b8:	000f6022 	.word	0x000f6022
 10021bc:	000f6023 	.word	0x000f6023
 10021c0:	000f6025 	.word	0x000f6025

010021c4 <USB_OTG_CoreInit>:
*/
USB_OTG_STS USB_OTG_CoreInit(USB_OTG_CORE_HANDLE *pdev)
{
    USB_OTG_STS status = USB_OTG_OK;
    return status;
}
 10021c4:	2000      	movs	r0, #0
 10021c6:	4770      	bx	lr

010021c8 <USB_OTG_SetCurrentMode>:
* @param  pdev : Selected device
* @param  mode :  (Host/device)only device
* @retval USB_OTG_STS : status
*/
USB_OTG_STS USB_OTG_SetCurrentMode(USB_OTG_CORE_HANDLE *pdev, uint8_t mode)
{
 10021c8:	b510      	push	{r4, lr}
    USB_OTG_STS status = USB_OTG_OK;
    if (mode == HOST_MODE)
    {

    }
    else if (mode == DEVICE_MODE)
 10021ca:	2900      	cmp	r1, #0
 10021cc:	d108      	bne.n	10021e0 <USB_OTG_SetCurrentMode+0x18>
    {
#ifdef USE_DEVICE_MODE
        pdev->dev.out_ep[0].xfer_buff = pdev->dev.setup_packet;
 10021ce:	0002      	movs	r2, r0
 10021d0:	0003      	movs	r3, r0
 10021d2:	3265      	adds	r2, #101	; 0x65
 10021d4:	33dc      	adds	r3, #220	; 0xdc
 10021d6:	32ff      	adds	r2, #255	; 0xff
 10021d8:	601a      	str	r2, [r3, #0]
        pdev->dev.out_ep[0].xfer_len = 8;
 10021da:	2308      	movs	r3, #8
 10021dc:	30e4      	adds	r0, #228	; 0xe4
 10021de:	6003      	str	r3, [r0, #0]
#endif
    }
    delay_us(50);
 10021e0:	2032      	movs	r0, #50	; 0x32
 10021e2:	f7fe fdbf 	bl	1000d64 <delay_us>

    return status;
}
 10021e6:	2000      	movs	r0, #0
 10021e8:	bd10      	pop	{r4, pc}

010021ea <USB_OTG_EPActivate>:
* @brief  USB_OTG_EPActivate : Activates an EP
* @param  pdev : Selected device
* @retval USB_OTG_STS : status
*/
USB_OTG_STS USB_OTG_EPActivate(USB_OTG_CORE_HANDLE *pdev, USB_OTG_EP *ep)
{
 10021ea:	2301      	movs	r3, #1
 10021ec:	68c2      	ldr	r2, [r0, #12]
 10021ee:	7808      	ldrb	r0, [r1, #0]
        USB_OTG_MODIFY_REG8(&pdev->regs.CTRLREGS->IRQ_MASK1, intr_rxtxe.d8, 0);
    }
    else
    {
        intr_rxtxe.d8 = 1 << ep->num;
        USB_OTG_MODIFY_REG8(&pdev->regs.CTRLREGS ->IRQ_MASK1, intr_rxtxe.d8, 0);
 10021f0:	7851      	ldrb	r1, [r2, #1]
 10021f2:	4083      	lsls	r3, r0
 10021f4:	43db      	mvns	r3, r3
 10021f6:	b25b      	sxtb	r3, r3
 10021f8:	400b      	ands	r3, r1
    }
    return status;
}
 10021fa:	2000      	movs	r0, #0
        USB_OTG_MODIFY_REG8(&pdev->regs.CTRLREGS ->IRQ_MASK1, intr_rxtxe.d8, 0);
 10021fc:	7053      	strb	r3, [r2, #1]
}
 10021fe:	4770      	bx	lr

01002200 <USB_OTG_EPDeactivate>:
* @brief  USB_OTG_EPDeactivate : Deactivates an EP
* @param  pdev : Selected device
* @retval USB_OTG_STS : status
*/
USB_OTG_STS USB_OTG_EPDeactivate(USB_OTG_CORE_HANDLE *pdev, USB_OTG_EP *ep)
{
 1002200:	2301      	movs	r3, #1
 1002202:	780a      	ldrb	r2, [r1, #0]
    {
        intr_rxtxe.d8 = 1 << ep->num;
        USB_OTG_MODIFY_REG8(&pdev->regs.CTRLREGS ->IRQ_MASK1, 0, intr_rxtxe.d8);
    }
    return status;
}
 1002204:	4093      	lsls	r3, r2
 1002206:	68c2      	ldr	r2, [r0, #12]
 1002208:	b2db      	uxtb	r3, r3
        USB_OTG_MODIFY_REG8(&pdev->regs.CTRLREGS ->IRQ_MASK1, 0, intr_rxtxe.d8);
 100220a:	7851      	ldrb	r1, [r2, #1]
}
 100220c:	2000      	movs	r0, #0
        USB_OTG_MODIFY_REG8(&pdev->regs.CTRLREGS ->IRQ_MASK1, 0, intr_rxtxe.d8);
 100220e:	430b      	orrs	r3, r1
 1002210:	7053      	strb	r3, [r2, #1]
}
 1002212:	4770      	bx	lr

01002214 <USB_OTG_GetMode>:
* @retval current mode
*/
uint8_t USB_OTG_GetMode(USB_OTG_CORE_HANDLE *pdev)
{
    return DEVICE_MODE;
}
 1002214:	2000      	movs	r0, #0
 1002216:	4770      	bx	lr

01002218 <USB_OTG_IsDeviceMode>:
* @retval num_in_ep
*/
uint8_t USB_OTG_IsDeviceMode(USB_OTG_CORE_HANDLE *pdev)
{
    return (USB_OTG_GetMode(pdev) != HOST_MODE);
}
 1002218:	2001      	movs	r0, #1
 100221a:	4770      	bx	lr

0100221c <USB_OTG_EP0StartXfer>:
* @param  pdev : Selected device
* @retval USB_OTG_STS : status
*/
extern uint8_t out0_data_len;
USB_OTG_STS USB_OTG_EP0StartXfer(USB_OTG_CORE_HANDLE *pdev, USB_OTG_EP *ep)
{
 100221c:	b570      	push	{r4, r5, r6, lr}
    USB_OTG_STS  status = USB_OTG_OK;
    uint8_t rx_count;
    uint32_t fifoemptymsk = 0;
    /* IN endpoint */
    if (ep->is_in == 1)
 100221e:	784b      	ldrb	r3, [r1, #1]
{
 1002220:	0005      	movs	r5, r0
 1002222:	000c      	movs	r4, r1
 1002224:	6908      	ldr	r0, [r1, #16]
    if (ep->is_in == 1)
 1002226:	2b01      	cmp	r3, #1
 1002228:	d131      	bne.n	100228e <USB_OTG_EP0StartXfer+0x72>
    {
        ep->rem_data_len = ep->xfer_len - ep->xfer_count;
 100222a:	6949      	ldr	r1, [r1, #20]
 100222c:	1a42      	subs	r2, r0, r1
 100222e:	61a2      	str	r2, [r4, #24]
        /* Zero Length Packet? */
        if (ep->rem_data_len == 0)
 1002230:	d10f      	bne.n	1002252 <USB_OTG_EP0StartXfer+0x36>
        {
            if (ep->xfer_len != 0 && ep->xfer_len % ep->maxpacket == 0)
 1002232:	2800      	cmp	r0, #0
 1002234:	d00b      	beq.n	100224e <USB_OTG_EP0StartXfer+0x32>
 1002236:	79e1      	ldrb	r1, [r4, #7]
 1002238:	f001 fefe 	bl	1004038 <__aeabi_uidivmod>
 100223c:	2900      	cmp	r1, #0
 100223e:	d106      	bne.n	100224e <USB_OTG_EP0StartXfer+0x32>
*/

USB_OTG_STS USB_OTG_EPReply_Zerolen(USB_OTG_CORE_HANDLE *pdev, USB_OTG_EP *ep)
{
    USB_OTG_STS status = USB_OTG_OK;
    USB_OTG_WRITE_REG8(&pdev->regs.xferctl ->TRIG, 0x10 << (ep ->num));
 1002240:	2310      	movs	r3, #16
 1002242:	7820      	ldrb	r0, [r4, #0]
 1002244:	692a      	ldr	r2, [r5, #16]
 1002246:	4083      	lsls	r3, r0
 1002248:	b2db      	uxtb	r3, r3
 100224a:	7013      	strb	r3, [r2, #0]
                ep->xfer_len = 0;
 100224c:	6121      	str	r1, [r4, #16]
}
 100224e:	2000      	movs	r0, #0
 1002250:	bd70      	pop	{r4, r5, r6, pc}
 1002252:	68a0      	ldr	r0, [r4, #8]
            if (ep->rem_data_len > ep->maxpacket)
 1002254:	79e3      	ldrb	r3, [r4, #7]
 1002256:	1841      	adds	r1, r0, r1
 1002258:	429a      	cmp	r2, r3
 100225a:	d90f      	bls.n	100227c <USB_OTG_EP0StartXfer+0x60>
                USB_OTG_WritePacket(pdev,
 100225c:	2200      	movs	r2, #0
 100225e:	0028      	movs	r0, r5
 1002260:	f7ff ff4e 	bl	1002100 <USB_OTG_WritePacket>
                ep->xfer_count += ep->maxpacket;
 1002264:	6962      	ldr	r2, [r4, #20]
 1002266:	79e3      	ldrb	r3, [r4, #7]
 1002268:	189b      	adds	r3, r3, r2
                ep->rem_data_len = ep->xfer_len - ep->xfer_count;
 100226a:	6922      	ldr	r2, [r4, #16]
                ep->xfer_count += ep->maxpacket;
 100226c:	6163      	str	r3, [r4, #20]
                ep->rem_data_len = ep->xfer_len - ep->xfer_count;
 100226e:	1ad3      	subs	r3, r2, r3
                ep->rem_data_len = 0;
 1002270:	61a3      	str	r3, [r4, #24]
                USB_OTG_TRIG(pdev, ep);
 1002272:	0021      	movs	r1, r4
 1002274:	0028      	movs	r0, r5
 1002276:	f000 f897 	bl	10023a8 <USB_OTG_TRIG>
 100227a:	e7e8      	b.n	100224e <USB_OTG_EP0StartXfer+0x32>
                USB_OTG_WritePacket(pdev,
 100227c:	b2d3      	uxtb	r3, r2
 100227e:	0028      	movs	r0, r5
 1002280:	2200      	movs	r2, #0
 1002282:	f7ff ff3d 	bl	1002100 <USB_OTG_WritePacket>
                ep->xfer_count = ep->xfer_len;
 1002286:	6923      	ldr	r3, [r4, #16]
 1002288:	6163      	str	r3, [r4, #20]
                ep->rem_data_len = 0;
 100228a:	2300      	movs	r3, #0
 100228c:	e7f0      	b.n	1002270 <USB_OTG_EP0StartXfer+0x54>
        if (ep->xfer_len == 0)
 100228e:	2800      	cmp	r0, #0
 1002290:	d0dd      	beq.n	100224e <USB_OTG_EP0StartXfer+0x32>
            if (out0_data_len)
 1002292:	4b0a      	ldr	r3, [pc, #40]	; (10022bc <USB_OTG_EP0StartXfer+0xa0>)
 1002294:	781b      	ldrb	r3, [r3, #0]
 1002296:	2b00      	cmp	r3, #0
 1002298:	d101      	bne.n	100229e <USB_OTG_EP0StartXfer+0x82>
                rx_count = USB_OTG_READ_REG8(pdev->regs.LENREGS[0]);
 100229a:	6a6b      	ldr	r3, [r5, #36]	; 0x24
 100229c:	781b      	ldrb	r3, [r3, #0]
            USB_OTG_ReadPacket(pdev, ep->xfer_buff + ep->xfer_count, ep->num, ep->xfer_len);
 100229e:	b2c3      	uxtb	r3, r0
 10022a0:	68a1      	ldr	r1, [r4, #8]
 10022a2:	6960      	ldr	r0, [r4, #20]
 10022a4:	7822      	ldrb	r2, [r4, #0]
 10022a6:	1809      	adds	r1, r1, r0
 10022a8:	0028      	movs	r0, r5
 10022aa:	f7ff ff3b 	bl	1002124 <USB_OTG_ReadPacket>
            ep->xfer_count = 0;
 10022ae:	2300      	movs	r3, #0
            ep->xfer_buff = pdev->dev.setup_packet;
 10022b0:	3565      	adds	r5, #101	; 0x65
 10022b2:	35ff      	adds	r5, #255	; 0xff
            ep->xfer_count = 0;
 10022b4:	6163      	str	r3, [r4, #20]
            ep->xfer_buff = pdev->dev.setup_packet;
 10022b6:	60a5      	str	r5, [r4, #8]
 10022b8:	e7c9      	b.n	100224e <USB_OTG_EP0StartXfer+0x32>
 10022ba:	46c0      	nop			; (mov r8, r8)
 10022bc:	00020a50 	.word	0x00020a50

010022c0 <USB_OTG_EPStartXfer>:
{
 10022c0:	b570      	push	{r4, r5, r6, lr}
    if (ep->is_in == 1)
 10022c2:	784b      	ldrb	r3, [r1, #1]
{
 10022c4:	0006      	movs	r6, r0
 10022c6:	000c      	movs	r4, r1
 10022c8:	780a      	ldrb	r2, [r1, #0]
    if (ep->is_in == 1)
 10022ca:	2b01      	cmp	r3, #1
 10022cc:	d150      	bne.n	1002370 <USB_OTG_EPStartXfer+0xb0>
        if ((pdev->cfg.dma_enable == 0) || ((USB_OTG_DEV_DMA_EP_NUM & 0x07) != ep->num))
 10022ce:	78c3      	ldrb	r3, [r0, #3]
 10022d0:	2b00      	cmp	r3, #0
 10022d2:	d001      	beq.n	10022d8 <USB_OTG_EPStartXfer+0x18>
 10022d4:	2a01      	cmp	r2, #1
 10022d6:	d01c      	beq.n	1002312 <USB_OTG_EPStartXfer+0x52>
            ep->rem_data_len = ep->xfer_len - ep->xfer_count;
 10022d8:	6961      	ldr	r1, [r4, #20]
 10022da:	6923      	ldr	r3, [r4, #16]
 10022dc:	68a0      	ldr	r0, [r4, #8]
 10022de:	1a5d      	subs	r5, r3, r1
            if (ep->rem_data_len == ep->maxpacket)
 10022e0:	79e3      	ldrb	r3, [r4, #7]
            ep->rem_data_len = ep->xfer_len - ep->xfer_count;
 10022e2:	61a5      	str	r5, [r4, #24]
 10022e4:	1841      	adds	r1, r0, r1
            if (ep->rem_data_len == ep->maxpacket)
 10022e6:	429d      	cmp	r5, r3
 10022e8:	d115      	bne.n	1002316 <USB_OTG_EPStartXfer+0x56>
                USB_OTG_WritePacket(pdev,
 10022ea:	002b      	movs	r3, r5
 10022ec:	0030      	movs	r0, r6
 10022ee:	f7ff ff07 	bl	1002100 <USB_OTG_WritePacket>
                ep->xfer_count += ep->maxpacket;
 10022f2:	6962      	ldr	r2, [r4, #20]
 10022f4:	79e3      	ldrb	r3, [r4, #7]
                USB_OTG_TRIG(pdev, ep);
 10022f6:	0021      	movs	r1, r4
                ep->xfer_count += ep->maxpacket;
 10022f8:	18d3      	adds	r3, r2, r3
 10022fa:	6163      	str	r3, [r4, #20]
                USB_OTG_TRIG(pdev, ep);
 10022fc:	0030      	movs	r0, r6
 10022fe:	f000 f853 	bl	10023a8 <USB_OTG_TRIG>
                ep->xfer_count = ep->xfer_len;
 1002302:	6923      	ldr	r3, [r4, #16]
                pdev->dev.zero_replay_flag = 1;
 1002304:	2201      	movs	r2, #1
                ep->xfer_count = ep->xfer_len;
 1002306:	6163      	str	r3, [r4, #20]
                ep->rem_data_len = 0;
 1002308:	2300      	movs	r3, #0
 100230a:	61a3      	str	r3, [r4, #24]
                pdev->dev.zero_replay_flag = 1;
 100230c:	337d      	adds	r3, #125	; 0x7d
 100230e:	33ff      	adds	r3, #255	; 0xff
 1002310:	54f2      	strb	r2, [r6, r3]
}
 1002312:	2000      	movs	r0, #0
 1002314:	bd70      	pop	{r4, r5, r6, pc}
            else if (ep->rem_data_len == 0)
 1002316:	2d00      	cmp	r5, #0
 1002318:	d107      	bne.n	100232a <USB_OTG_EPStartXfer+0x6a>
                USB_OTG_WritePacket(pdev,
 100231a:	002b      	movs	r3, r5
 100231c:	0030      	movs	r0, r6
 100231e:	f7ff feef 	bl	1002100 <USB_OTG_WritePacket>
                ep->xfer_count = ep->xfer_len;
 1002322:	6923      	ldr	r3, [r4, #16]
                ep->rem_data_len = 0;
 1002324:	61a5      	str	r5, [r4, #24]
                ep->xfer_count = ep->xfer_len;
 1002326:	6163      	str	r3, [r4, #20]
 1002328:	e7f3      	b.n	1002312 <USB_OTG_EPStartXfer+0x52>
                if (ep->rem_data_len > ep->maxpacket)
 100232a:	429d      	cmp	r5, r3
 100232c:	d913      	bls.n	1002356 <USB_OTG_EPStartXfer+0x96>
                    USB_OTG_WritePacket(pdev,
 100232e:	0030      	movs	r0, r6
 1002330:	f7ff fee6 	bl	1002100 <USB_OTG_WritePacket>
                    USB_OTG_TRIG(pdev, ep);
 1002334:	0021      	movs	r1, r4
 1002336:	0030      	movs	r0, r6
 1002338:	f000 f836 	bl	10023a8 <USB_OTG_TRIG>
                    ep->xfer_count += ep->maxpacket;
 100233c:	6963      	ldr	r3, [r4, #20]
 100233e:	79e2      	ldrb	r2, [r4, #7]
 1002340:	18d2      	adds	r2, r2, r3
                    if (ep->xfer_len >= ep->xfer_count)
 1002342:	6923      	ldr	r3, [r4, #16]
                    ep->xfer_count += ep->maxpacket;
 1002344:	6162      	str	r2, [r4, #20]
                    if (ep->xfer_len >= ep->xfer_count)
 1002346:	429a      	cmp	r2, r3
 1002348:	d801      	bhi.n	100234e <USB_OTG_EPStartXfer+0x8e>
            ep->rem_data_len = ep->xfer_count - ep->xfer_len;
 100234a:	1a9b      	subs	r3, r3, r2
 100234c:	e00e      	b.n	100236c <USB_OTG_EPStartXfer+0xac>
                        ep->rem_data_len = 0;
 100234e:	2200      	movs	r2, #0
                        ep->xfer_count = ep->xfer_len;
 1002350:	6163      	str	r3, [r4, #20]
                        ep->rem_data_len = 0;
 1002352:	61a2      	str	r2, [r4, #24]
 1002354:	e7dd      	b.n	1002312 <USB_OTG_EPStartXfer+0x52>
                    USB_OTG_WritePacket(pdev,
 1002356:	b2eb      	uxtb	r3, r5
 1002358:	0030      	movs	r0, r6
 100235a:	f7ff fed1 	bl	1002100 <USB_OTG_WritePacket>
                    USB_OTG_TRIG(pdev, ep);
 100235e:	0021      	movs	r1, r4
 1002360:	0030      	movs	r0, r6
 1002362:	f000 f821 	bl	10023a8 <USB_OTG_TRIG>
                    ep->xfer_count = ep->xfer_len;
 1002366:	6923      	ldr	r3, [r4, #16]
 1002368:	6163      	str	r3, [r4, #20]
                    ep->rem_data_len = 0;
 100236a:	2300      	movs	r3, #0
            ep->rem_data_len = ep->xfer_count - ep->xfer_len;
 100236c:	61a3      	str	r3, [r4, #24]
 100236e:	e7d0      	b.n	1002312 <USB_OTG_EPStartXfer+0x52>
        rx_count = USB_OTG_READ_REG8(pdev->regs.LENREGS[ep ->num]);
 1002370:	0013      	movs	r3, r2
 1002372:	3308      	adds	r3, #8
 1002374:	009b      	lsls	r3, r3, #2
 1002376:	18c3      	adds	r3, r0, r3
 1002378:	685b      	ldr	r3, [r3, #4]
 100237a:	781d      	ldrb	r5, [r3, #0]
        USB_OTG_ReadPacket(pdev, ep->xfer_buff + ep->xfer_count, ep->num, rx_count);
 100237c:	688b      	ldr	r3, [r1, #8]
 100237e:	6949      	ldr	r1, [r1, #20]
        rx_count = USB_OTG_READ_REG8(pdev->regs.LENREGS[ep ->num]);
 1002380:	b2ed      	uxtb	r5, r5
        USB_OTG_ReadPacket(pdev, ep->xfer_buff + ep->xfer_count, ep->num, rx_count);
 1002382:	1859      	adds	r1, r3, r1
 1002384:	002b      	movs	r3, r5
 1002386:	f7ff fecd 	bl	1002124 <USB_OTG_ReadPacket>
        data_len = rx_count;
 100238a:	4a06      	ldr	r2, [pc, #24]	; (10023a4 <USB_OTG_EPStartXfer+0xe4>)
        ep->xfer_count += rx_count;
 100238c:	6963      	ldr	r3, [r4, #20]
        data_len = rx_count;
 100238e:	7015      	strb	r5, [r2, #0]
        if (ep->xfer_len <= ep->xfer_count)
 1002390:	6922      	ldr	r2, [r4, #16]
        ep->xfer_count += rx_count;
 1002392:	18eb      	adds	r3, r5, r3
 1002394:	6163      	str	r3, [r4, #20]
        if (ep->xfer_len <= ep->xfer_count)
 1002396:	4293      	cmp	r3, r2
 1002398:	d2d7      	bcs.n	100234a <USB_OTG_EPStartXfer+0x8a>
            ep->rem_data_len = 0;
 100239a:	2200      	movs	r2, #0
            ep->xfer_len = ep->xfer_count;
 100239c:	6123      	str	r3, [r4, #16]
            ep->rem_data_len = 0;
 100239e:	61a2      	str	r2, [r4, #24]
 10023a0:	e7b7      	b.n	1002312 <USB_OTG_EPStartXfer+0x52>
 10023a2:	46c0      	nop			; (mov r8, r8)
 10023a4:	00020ab1 	.word	0x00020ab1

010023a8 <USB_OTG_TRIG>:
    USB_OTG_WRITE_REG8(CORE_USB_STATUS, USB_STATUS_NAK);
 10023a8:	2340      	movs	r3, #64	; 0x40
 10023aa:	4a0c      	ldr	r2, [pc, #48]	; (10023dc <USB_OTG_TRIG+0x34>)
 10023ac:	480c      	ldr	r0, [pc, #48]	; (10023e0 <USB_OTG_TRIG+0x38>)
{
 10023ae:	b510      	push	{r4, lr}
    USB_OTG_WRITE_REG8(CORE_USB_STATUS, USB_STATUS_NAK);
 10023b0:	7013      	strb	r3, [r2, #0]
        if (USB_OTG_READ_REG8(CORE_USB_STATUS) & USB_STATUS_NAK)  break;
 10023b2:	7814      	ldrb	r4, [r2, #0]
 10023b4:	421c      	tst	r4, r3
 10023b6:	d102      	bne.n	10023be <USB_OTG_TRIG+0x16>
 10023b8:	3801      	subs	r0, #1
    for (i = 0; i < 10000; i++)
 10023ba:	2800      	cmp	r0, #0
 10023bc:	d1f9      	bne.n	10023b2 <USB_OTG_TRIG+0xa>
    USB_OTG_WRITE_REG8(CORE_USB_FIFO_EMPTY, 1 << ep ->num);
 10023be:	2301      	movs	r3, #1
 10023c0:	0018      	movs	r0, r3
 10023c2:	780a      	ldrb	r2, [r1, #0]
 10023c4:	4090      	lsls	r0, r2
 10023c6:	b2c2      	uxtb	r2, r0
 10023c8:	4806      	ldr	r0, [pc, #24]	; (10023e4 <USB_OTG_TRIG+0x3c>)
 10023ca:	7002      	strb	r2, [r0, #0]
    USB_OTG_WRITE_REG8(CORE_USB_TRIG, 1 << ep ->num);
 10023cc:	780a      	ldrb	r2, [r1, #0]
}
 10023ce:	2000      	movs	r0, #0
    USB_OTG_WRITE_REG8(CORE_USB_TRIG, 1 << ep ->num);
 10023d0:	4093      	lsls	r3, r2
 10023d2:	4a05      	ldr	r2, [pc, #20]	; (10023e8 <USB_OTG_TRIG+0x40>)
 10023d4:	b2db      	uxtb	r3, r3
 10023d6:	7013      	strb	r3, [r2, #0]
}
 10023d8:	bd10      	pop	{r4, pc}
 10023da:	46c0      	nop			; (mov r8, r8)
 10023dc:	000f6026 	.word	0x000f6026
 10023e0:	00002710 	.word	0x00002710
 10023e4:	000f6027 	.word	0x000f6027
 10023e8:	000f6010 	.word	0x000f6010

010023ec <USB_OTG_EPSetStall>:
    if (ep->num == 0)
 10023ec:	780b      	ldrb	r3, [r1, #0]
 10023ee:	2b00      	cmp	r3, #0
 10023f0:	d104      	bne.n	10023fc <USB_OTG_EPSetStall+0x10>
        USB_OTG_WRITE_REG8(&pdev->regs.xferctl ->STALL, 0x01);
 10023f2:	2201      	movs	r2, #1
 10023f4:	6903      	ldr	r3, [r0, #16]
 10023f6:	705a      	strb	r2, [r3, #1]
    USB_OTG_WRITE_REG8(&pdev->regs.xferctl ->TRIG, 0x10 << (ep ->num));
 10023f8:	320f      	adds	r2, #15
 10023fa:	701a      	strb	r2, [r3, #0]
}
 10023fc:	2000      	movs	r0, #0
 10023fe:	4770      	bx	lr

01002400 <USB_OTG_EPReply_Zerolen>:
    USB_OTG_WRITE_REG8(&pdev->regs.xferctl ->TRIG, 0x10 << (ep ->num));
 1002400:	2310      	movs	r3, #16
 1002402:	7809      	ldrb	r1, [r1, #0]
 1002404:	6902      	ldr	r2, [r0, #16]
 1002406:	408b      	lsls	r3, r1
 1002408:	b2db      	uxtb	r3, r3
    return status;
}
 100240a:	2000      	movs	r0, #0
    USB_OTG_WRITE_REG8(&pdev->regs.xferctl ->TRIG, 0x10 << (ep ->num));
 100240c:	7013      	strb	r3, [r2, #0]
}
 100240e:	4770      	bx	lr

01002410 <USB_OTG_ActiveRemoteWakeup>:
* @brief  USB_OTG_RemoteWakeup : active remote wakeup signalling
* @param  None
* @retval : None
*/
void USB_OTG_ActiveRemoteWakeup(USB_OTG_CORE_HANDLE *pdev)
{
 1002410:	b570      	push	{r4, r5, r6, lr}
    USB_OTG_CTL_TypeDef power;
    /* Note: If CLK has been stopped,it will need be restarted before
     * this write can occur.
     */
    power.d8 = USB_OTG_READ_REG8(CORE_USB_CONFIG);
 1002412:	25f6      	movs	r5, #246	; 0xf6
    power.b.resume = 1;
 1002414:	2640      	movs	r6, #64	; 0x40
    power.b.wakeup_enable = 1;
 1002416:	2380      	movs	r3, #128	; 0x80
    power.d8 = USB_OTG_READ_REG8(CORE_USB_CONFIG);
 1002418:	032d      	lsls	r5, r5, #12
 100241a:	782c      	ldrb	r4, [r5, #0]
    power.b.wakeup_enable = 1;
 100241c:	425b      	negs	r3, r3
    power.b.resume = 1;
 100241e:	4334      	orrs	r4, r6
    power.b.wakeup_enable = 1;
 1002420:	431c      	orrs	r4, r3
    USB_OTG_WRITE_REG8(CORE_USB_CONFIG, power.d8);
 1002422:	b2e3      	uxtb	r3, r4
 1002424:	702b      	strb	r3, [r5, #0]
    /* The software should leave then this bit set for approximately 10ms
     * (minimum of 2ms, a maximum of 15ms) before resetting it to 0.
     */
    delay_ms(2);
 1002426:	2002      	movs	r0, #2
 1002428:	f7fe fca2 	bl	1000d70 <delay_ms>
    delay_us(500);
 100242c:	20fa      	movs	r0, #250	; 0xfa
 100242e:	0040      	lsls	r0, r0, #1
 1002430:	f7fe fc98 	bl	1000d64 <delay_us>
    power.b.resume = 0;
    power.b.wakeup_enable = 0;
    USB_OTG_WRITE_REG8(CORE_USB_CONFIG, power.d8);
 1002434:	237f      	movs	r3, #127	; 0x7f
    power.b.resume = 0;
 1002436:	43b4      	bics	r4, r6
    USB_OTG_WRITE_REG8(CORE_USB_CONFIG, power.d8);
 1002438:	401c      	ands	r4, r3
 100243a:	702c      	strb	r4, [r5, #0]
}
 100243c:	bd70      	pop	{r4, r5, r6, pc}

0100243e <DCD_Init>:
#include "usb_bsp.h"
#include "yc_timer.h"

void DCD_Init(USB_OTG_CORE_HANDLE *pdev,
              USB_OTG_CORE_ID_TypeDef coreID)
{
 100243e:	b5f8      	push	{r3, r4, r5, r6, r7, lr}
 1002440:	0004      	movs	r4, r0
    uint32_t i;
    USB_OTG_EP *ep;
    /* Set Register Address */
    USB_OTG_SelectCore(pdev, coreID);
 1002442:	f7ff fe7b 	bl	100213c <USB_OTG_SelectCore>

    /* Force_FS */
    pdev->dev.device_status = USB_OTG_DEFAULT;
    pdev->dev.device_address = 0;
 1002446:	2200      	movs	r2, #0
    pdev->dev.device_status = USB_OTG_DEFAULT;
 1002448:	0023      	movs	r3, r4
 100244a:	2101      	movs	r1, #1
        /* Init ep structure */
        ep->is_in = 1;
        ep->num = i;
        ep->tx_fifo_num = i;
        /* Control until ep is actvated */
        ep->type = EP_TYPE_CTRL;
 100244c:	0015      	movs	r5, r2
        ep->maxpacket =  USB_OTG_MAX_EP0_SIZE;
 100244e:	2740      	movs	r7, #64	; 0x40
    pdev->dev.device_status = USB_OTG_DEFAULT;
 1002450:	333a      	adds	r3, #58	; 0x3a
 1002452:	7019      	strb	r1, [r3, #0]
    pdev->dev.device_address = 0;
 1002454:	70da      	strb	r2, [r3, #3]
    for (i = 0; i < pdev->cfg.dev_endpoints; i++)
 1002456:	7860      	ldrb	r0, [r4, #1]
 1002458:	330a      	adds	r3, #10
 100245a:	4290      	cmp	r0, r2
 100245c:	d80e      	bhi.n	100247c <DCD_Init+0x3e>
        ep->xfer_buff = 0;
        ep->xfer_len = 0;
    }

    for (i = 0; i < pdev->cfg.dev_endpoints; i++)
 100245e:	2200      	movs	r2, #0
 1002460:	0023      	movs	r3, r4
    {
        ep = &pdev->dev.out_ep[i];
        /* Init ep structure */
        ep->is_in = 0;
 1002462:	0011      	movs	r1, r2
        ep->num = i;
        ep->tx_fifo_num = i;
        /* Control until ep is activated */
        ep->type = EP_TYPE_CTRL;
        ep->maxpacket = USB_OTG_MAX_EP0_SIZE;
 1002464:	2640      	movs	r6, #64	; 0x40
 1002466:	33d4      	adds	r3, #212	; 0xd4
    for (i = 0; i < pdev->cfg.dev_endpoints; i++)
 1002468:	4290      	cmp	r0, r2
 100246a:	d812      	bhi.n	1002492 <DCD_Init+0x54>
        ep->xfer_buff = 0;
        ep->xfer_len = 0;
    }

    /* Init the Core (common init.) */
    USB_OTG_CoreInit(pdev);
 100246c:	0020      	movs	r0, r4
 100246e:	f7ff fea9 	bl	10021c4 <USB_OTG_CoreInit>

    /* Force Device Mode*/
    USB_OTG_SetCurrentMode(pdev, DEVICE_MODE);
 1002472:	2100      	movs	r1, #0
 1002474:	0020      	movs	r0, r4
 1002476:	f7ff fea7 	bl	10021c8 <USB_OTG_SetCurrentMode>

}
 100247a:	bdf8      	pop	{r3, r4, r5, r6, r7, pc}
        ep->num = i;
 100247c:	b2d6      	uxtb	r6, r2
        ep->is_in = 1;
 100247e:	7059      	strb	r1, [r3, #1]
        ep->num = i;
 1002480:	701e      	strb	r6, [r3, #0]
        ep->tx_fifo_num = i;
 1002482:	719e      	strb	r6, [r3, #6]
        ep->type = EP_TYPE_CTRL;
 1002484:	70dd      	strb	r5, [r3, #3]
        ep->maxpacket =  USB_OTG_MAX_EP0_SIZE;
 1002486:	71df      	strb	r7, [r3, #7]
        ep->xfer_buff = 0;
 1002488:	609d      	str	r5, [r3, #8]
        ep->xfer_len = 0;
 100248a:	611d      	str	r5, [r3, #16]
    for (i = 0; i < pdev->cfg.dev_endpoints; i++)
 100248c:	3201      	adds	r2, #1
 100248e:	3324      	adds	r3, #36	; 0x24
 1002490:	e7e3      	b.n	100245a <DCD_Init+0x1c>
        ep->num = i;
 1002492:	b2d5      	uxtb	r5, r2
        ep->is_in = 0;
 1002494:	7059      	strb	r1, [r3, #1]
        ep->num = i;
 1002496:	701d      	strb	r5, [r3, #0]
        ep->tx_fifo_num = i;
 1002498:	719d      	strb	r5, [r3, #6]
        ep->type = EP_TYPE_CTRL;
 100249a:	70d9      	strb	r1, [r3, #3]
        ep->maxpacket = USB_OTG_MAX_EP0_SIZE;
 100249c:	71de      	strb	r6, [r3, #7]
        ep->xfer_buff = 0;
 100249e:	6099      	str	r1, [r3, #8]
        ep->xfer_len = 0;
 10024a0:	6119      	str	r1, [r3, #16]
    for (i = 0; i < pdev->cfg.dev_endpoints; i++)
 10024a2:	3201      	adds	r2, #1
 10024a4:	3324      	adds	r3, #36	; 0x24
 10024a6:	e7df      	b.n	1002468 <DCD_Init+0x2a>

010024a8 <DCD_EP_Open>:
*/
uint32_t DCD_EP_Open(USB_OTG_CORE_HANDLE *pdev,
                     uint8_t ep_addr,
                     uint16_t ep_mps,
                     uint8_t ep_type)
{
 10024a8:	b570      	push	{r4, r5, r6, lr}
 10024aa:	257f      	movs	r5, #127	; 0x7f
    USB_OTG_EP *ep;

    if ((ep_addr & 0x80) == 0x80)
 10024ac:	b24e      	sxtb	r6, r1
 10024ae:	400d      	ands	r5, r1
 10024b0:	2424      	movs	r4, #36	; 0x24
 10024b2:	2e00      	cmp	r6, #0
 10024b4:	da13      	bge.n	10024de <DCD_EP_Open+0x36>
    {
        ep = &pdev->dev.in_ep[ep_addr & 0x7F];
 10024b6:	436c      	muls	r4, r5
 10024b8:	0021      	movs	r1, r4
 10024ba:	3144      	adds	r1, #68	; 0x44
    }
    else
    {
        ep = &pdev->dev.out_ep[ep_addr & 0x7F];
 10024bc:	1841      	adds	r1, r0, r1
    }
    ep->num   = ep_addr & 0x7F;

    ep->is_in = (0x80 & ep_addr) != 0;
 10024be:	0ff4      	lsrs	r4, r6, #31
    ep->num   = ep_addr & 0x7F;
 10024c0:	700d      	strb	r5, [r1, #0]
    ep->is_in = (0x80 & ep_addr) != 0;
 10024c2:	704c      	strb	r4, [r1, #1]
    ep->maxpacket = ep_mps;
 10024c4:	71ca      	strb	r2, [r1, #7]
    ep->type = ep_type;
 10024c6:	70cb      	strb	r3, [r1, #3]
    if (ep->is_in)
 10024c8:	2e00      	cmp	r6, #0
 10024ca:	da00      	bge.n	10024ce <DCD_EP_Open+0x26>
    {
        /* Assign a Tx FIFO */
        ep->tx_fifo_num = ep->num;
 10024cc:	718d      	strb	r5, [r1, #6]
    }
    /* Set initial data PID. */
    if (ep_type == USB_OTG_EP_BULK)
 10024ce:	2b02      	cmp	r3, #2
 10024d0:	d101      	bne.n	10024d6 <DCD_EP_Open+0x2e>
    {
        ep->data_pid_start = 0;
 10024d2:	2300      	movs	r3, #0
 10024d4:	710b      	strb	r3, [r1, #4]
    }
    USB_OTG_EPActivate(pdev, ep);
 10024d6:	f7ff fe88 	bl	10021ea <USB_OTG_EPActivate>
    return 0;
}
 10024da:	2000      	movs	r0, #0
 10024dc:	bd70      	pop	{r4, r5, r6, pc}
        ep = &pdev->dev.out_ep[ep_addr & 0x7F];
 10024de:	4361      	muls	r1, r4
 10024e0:	31d4      	adds	r1, #212	; 0xd4
 10024e2:	e7eb      	b.n	10024bc <DCD_EP_Open+0x14>

010024e4 <DCD_EP_Close>:
* @param pdev: device instance
* @param ep_addr: endpoint address
* @retval : status
*/
uint32_t DCD_EP_Close(USB_OTG_CORE_HANDLE *pdev, uint8_t  ep_addr)
{
 10024e4:	227f      	movs	r2, #127	; 0x7f
 10024e6:	b510      	push	{r4, lr}
    USB_OTG_EP *ep;

    if ((ep_addr & 0x80) == 0x80)
 10024e8:	b24c      	sxtb	r4, r1
 10024ea:	400a      	ands	r2, r1
 10024ec:	2324      	movs	r3, #36	; 0x24
 10024ee:	2c00      	cmp	r4, #0
 10024f0:	da0b      	bge.n	100250a <DCD_EP_Close+0x26>
    {
        ep = &pdev->dev.in_ep[ep_addr & 0x7F];
 10024f2:	4353      	muls	r3, r2
 10024f4:	3344      	adds	r3, #68	; 0x44
    }
    else
    {
        ep = &pdev->dev.out_ep[ep_addr & 0x7F];
 10024f6:	18c3      	adds	r3, r0, r3
    }
    ep->num   = ep_addr & 0x7F;
 10024f8:	701a      	strb	r2, [r3, #0]
    ep->is_in = (0x80 & ep_addr) ;
 10024fa:	227f      	movs	r2, #127	; 0x7f
 10024fc:	4391      	bics	r1, r2
 10024fe:	7059      	strb	r1, [r3, #1]
    USB_OTG_EPDeactivate(pdev, ep);
 1002500:	0019      	movs	r1, r3
 1002502:	f7ff fe7d 	bl	1002200 <USB_OTG_EPDeactivate>
    return 0;
}
 1002506:	2000      	movs	r0, #0
 1002508:	bd10      	pop	{r4, pc}
        ep = &pdev->dev.out_ep[ep_addr & 0x7F];
 100250a:	434b      	muls	r3, r1
 100250c:	33d4      	adds	r3, #212	; 0xd4
 100250e:	e7f2      	b.n	10024f6 <DCD_EP_Close+0x12>

01002510 <DCD_EP_PrepareRx>:
extern volatile uint8_t epone_rx_datalen;
uint32_t   DCD_EP_PrepareRx(USB_OTG_CORE_HANDLE *pdev,
                            uint8_t   ep_addr,
                            uint8_t *pbuf,
                            uint16_t  buf_len)
{
 1002510:	b5f8      	push	{r3, r4, r5, r6, r7, lr}
 1002512:	001d      	movs	r5, r3
 1002514:	267f      	movs	r6, #127	; 0x7f
    USB_OTG_EP *ep;

    ep = &pdev->dev.out_ep[ep_addr & 0x7F];
 1002516:	2324      	movs	r3, #36	; 0x24
 1002518:	400e      	ands	r6, r1
 100251a:	0019      	movs	r1, r3
 100251c:	4371      	muls	r1, r6
 100251e:	000f      	movs	r7, r1

    /*setup and start the Xfer */
    ep->xfer_buff = pbuf;
 1002520:	1841      	adds	r1, r0, r1
    ep = &pdev->dev.out_ep[ep_addr & 0x7F];
 1002522:	37d4      	adds	r7, #212	; 0xd4
{
 1002524:	0004      	movs	r4, r0
    ep = &pdev->dev.out_ep[ep_addr & 0x7F];
 1002526:	19c7      	adds	r7, r0, r7
    ep->xfer_buff = pbuf;
 1002528:	0008      	movs	r0, r1
 100252a:	30dc      	adds	r0, #220	; 0xdc
    ep->xfer_len = buf_len;
 100252c:	6085      	str	r5, [r0, #8]
    ep->xfer_count = 0;
 100252e:	000d      	movs	r5, r1
    ep->xfer_buff = pbuf;
 1002530:	6002      	str	r2, [r0, #0]
    ep->xfer_count = 0;
 1002532:	2000      	movs	r0, #0
 1002534:	35e8      	adds	r5, #232	; 0xe8
 1002536:	6028      	str	r0, [r5, #0]
    ep->is_in = 0;
 1002538:	3d13      	subs	r5, #19
 100253a:	7028      	strb	r0, [r5, #0]
    ep->num = ep_addr & 0x7F;
 100253c:	0008      	movs	r0, r1
 100253e:	30d4      	adds	r0, #212	; 0xd4
 1002540:	7006      	strb	r6, [r0, #0]

    if (pdev->cfg.dma_enable == 1)
 1002542:	78e0      	ldrb	r0, [r4, #3]
 1002544:	2801      	cmp	r0, #1
 1002546:	d101      	bne.n	100254c <DCD_EP_PrepareRx+0x3c>
    {
        ep->dma_addr = (uint32_t)pbuf;
 1002548:	31e0      	adds	r1, #224	; 0xe0
 100254a:	600a      	str	r2, [r1, #0]
    }


    if (ep->num == 0)
 100254c:	4373      	muls	r3, r6
 100254e:	18e3      	adds	r3, r4, r3
 1002550:	33d4      	adds	r3, #212	; 0xd4
 1002552:	781b      	ldrb	r3, [r3, #0]
 1002554:	2b00      	cmp	r3, #0
 1002556:	d105      	bne.n	1002564 <DCD_EP_PrepareRx+0x54>
    {
        USB_OTG_EP0StartXfer(pdev, ep);
 1002558:	0039      	movs	r1, r7
 100255a:	0020      	movs	r0, r4
 100255c:	f7ff fe5e 	bl	100221c <USB_OTG_EP0StartXfer>
            USB_OTG_WRITE_REG8(CORE_USB_STATUS, USB_STATUS_OUT(ep->num));
            USB_OTG_EPStartXfer(pdev, ep);
        }
    }
    return 0;
}
 1002560:	2000      	movs	r0, #0
 1002562:	bdf8      	pop	{r3, r4, r5, r6, r7, pc}
        next_flag = 0;
 1002564:	2300      	movs	r3, #0
 1002566:	4a17      	ldr	r2, [pc, #92]	; (10025c4 <DCD_EP_PrepareRx+0xb4>)
        USB_OTG_WRITE_REG8(CORE_USB_STATUS, USB_STATUS_NAK);
 1002568:	4d17      	ldr	r5, [pc, #92]	; (10025c8 <DCD_EP_PrepareRx+0xb8>)
        next_flag = 0;
 100256a:	7013      	strb	r3, [r2, #0]
        USB_OTG_WRITE_REG8(CORE_USB_STATUS, USB_STATUS_NAK);
 100256c:	2240      	movs	r2, #64	; 0x40
 100256e:	23fa      	movs	r3, #250	; 0xfa
 1002570:	702a      	strb	r2, [r5, #0]
 1002572:	009b      	lsls	r3, r3, #2
            if (USB_OTG_READ_REG8(CORE_USB_STATUS) & USB_STATUS_NAK)
 1002574:	7829      	ldrb	r1, [r5, #0]
 1002576:	4211      	tst	r1, r2
 1002578:	d020      	beq.n	10025bc <DCD_EP_PrepareRx+0xac>
                next_flag = 1;
 100257a:	2301      	movs	r3, #1
 100257c:	4911      	ldr	r1, [pc, #68]	; (10025c4 <DCD_EP_PrepareRx+0xb4>)
                USB_OTG_EPStartXfer(pdev, ep);
 100257e:	0020      	movs	r0, r4
                next_flag = 1;
 1002580:	700b      	strb	r3, [r1, #0]
                USB_OTG_WRITE_REG8(CORE_USB_STATUS, USB_STATUS_OUT(ep->num));
 1002582:	3323      	adds	r3, #35	; 0x23
 1002584:	4373      	muls	r3, r6
 1002586:	18e3      	adds	r3, r4, r3
 1002588:	33d4      	adds	r3, #212	; 0xd4
 100258a:	7819      	ldrb	r1, [r3, #0]
 100258c:	2302      	movs	r3, #2
 100258e:	404b      	eors	r3, r1
 1002590:	702b      	strb	r3, [r5, #0]
                USB_OTG_EPStartXfer(pdev, ep);
 1002592:	0039      	movs	r1, r7
                USB_OTG_WRITE_REG8(CORE_USB_STATUS, USB_STATUS_NAK);
 1002594:	702a      	strb	r2, [r5, #0]
                USB_OTG_EPStartXfer(pdev, ep);
 1002596:	f7ff fe93 	bl	10022c0 <USB_OTG_EPStartXfer>
        if (next_flag == 0)
 100259a:	4b0a      	ldr	r3, [pc, #40]	; (10025c4 <DCD_EP_PrepareRx+0xb4>)
 100259c:	781b      	ldrb	r3, [r3, #0]
 100259e:	2b00      	cmp	r3, #0
 10025a0:	d1de      	bne.n	1002560 <DCD_EP_PrepareRx+0x50>
            USB_OTG_WRITE_REG8(CORE_USB_STATUS, USB_STATUS_OUT(ep->num));
 10025a2:	2124      	movs	r1, #36	; 0x24
 10025a4:	434e      	muls	r6, r1
 10025a6:	19a6      	adds	r6, r4, r6
 10025a8:	36d4      	adds	r6, #212	; 0xd4
 10025aa:	7832      	ldrb	r2, [r6, #0]
 10025ac:	3302      	adds	r3, #2
 10025ae:	4053      	eors	r3, r2
 10025b0:	702b      	strb	r3, [r5, #0]
            USB_OTG_EPStartXfer(pdev, ep);
 10025b2:	0039      	movs	r1, r7
 10025b4:	0020      	movs	r0, r4
 10025b6:	f7ff fe83 	bl	10022c0 <USB_OTG_EPStartXfer>
 10025ba:	e7d1      	b.n	1002560 <DCD_EP_PrepareRx+0x50>
 10025bc:	3b01      	subs	r3, #1
        for (int i = 0; i < 1000; i++)
 10025be:	2b00      	cmp	r3, #0
 10025c0:	d1d8      	bne.n	1002574 <DCD_EP_PrepareRx+0x64>
 10025c2:	e7ea      	b.n	100259a <DCD_EP_PrepareRx+0x8a>
 10025c4:	00020a4c 	.word	0x00020a4c
 10025c8:	000f6026 	.word	0x000f6026

010025cc <DCD_EP_Tx>:
*/
uint32_t  DCD_EP_Tx(USB_OTG_CORE_HANDLE *pdev,
                    uint8_t   ep_addr,
                    uint8_t   *pbuf,
                    uint32_t   buf_len)
{
 10025cc:	b5f8      	push	{r3, r4, r5, r6, r7, lr}
 10025ce:	257f      	movs	r5, #127	; 0x7f
    USB_OTG_EP *ep;

    ep = &pdev->dev.in_ep[ep_addr & 0x7F];
 10025d0:	2424      	movs	r4, #36	; 0x24
 10025d2:	400d      	ands	r5, r1
 10025d4:	436c      	muls	r4, r5
 10025d6:	0021      	movs	r1, r4

    /* Setup and start the Transfer */
    ep->is_in = 1;
 10025d8:	1904      	adds	r4, r0, r4
 10025da:	0026      	movs	r6, r4
 10025dc:	2701      	movs	r7, #1
 10025de:	3645      	adds	r6, #69	; 0x45
 10025e0:	7037      	strb	r7, [r6, #0]
    ep->num = ep_addr & 0x7F;
 10025e2:	3e01      	subs	r6, #1
 10025e4:	7035      	strb	r5, [r6, #0]
    ep->xfer_buff = pbuf;
 10025e6:	64e2      	str	r2, [r4, #76]	; 0x4c
    ep->xfer_count = 0;
 10025e8:	2200      	movs	r2, #0
    ep = &pdev->dev.in_ep[ep_addr & 0x7F];
 10025ea:	3144      	adds	r1, #68	; 0x44
 10025ec:	1841      	adds	r1, r0, r1
    ep->xfer_count = 0;
 10025ee:	65a2      	str	r2, [r4, #88]	; 0x58
    ep->xfer_len  = buf_len;
 10025f0:	6563      	str	r3, [r4, #84]	; 0x54

    if (ep->num == 0)
 10025f2:	4295      	cmp	r5, r2
 10025f4:	d103      	bne.n	10025fe <DCD_EP_Tx+0x32>
    {
        USB_OTG_EP0StartXfer(pdev, ep);
 10025f6:	f7ff fe11 	bl	100221c <USB_OTG_EP0StartXfer>
    else
    {
        USB_OTG_EPStartXfer(pdev, ep);
    }
    return 0;
}
 10025fa:	2000      	movs	r0, #0
 10025fc:	bdf8      	pop	{r3, r4, r5, r6, r7, pc}
        USB_OTG_EPStartXfer(pdev, ep);
 10025fe:	f7ff fe5f 	bl	10022c0 <USB_OTG_EPStartXfer>
 1002602:	e7fa      	b.n	10025fa <DCD_EP_Tx+0x2e>

01002604 <DCD_EP_Stall>:
* @param epnum: endpoint address
* @retval : status
*/

uint32_t  DCD_EP_Stall(USB_OTG_CORE_HANDLE *pdev, uint8_t   epnum)
{
 1002604:	b510      	push	{r4, lr}
 1002606:	247f      	movs	r4, #127	; 0x7f
    USB_OTG_EP *ep;
    if ((0x80 & epnum) == 0x80)
 1002608:	b24a      	sxtb	r2, r1
 100260a:	400c      	ands	r4, r1
 100260c:	2324      	movs	r3, #36	; 0x24
 100260e:	2a00      	cmp	r2, #0
 1002610:	da0c      	bge.n	100262c <DCD_EP_Stall+0x28>
    {
        ep = &pdev->dev.in_ep[epnum & 0x7F];
 1002612:	4363      	muls	r3, r4
 1002614:	3344      	adds	r3, #68	; 0x44
 1002616:	0019      	movs	r1, r3
    else
    {
        ep = &pdev->dev.out_ep[epnum];
    }

    ep->is_stall = 1;
 1002618:	2301      	movs	r3, #1
        ep = &pdev->dev.out_ep[epnum];
 100261a:	1841      	adds	r1, r0, r1
    ep->num   = epnum & 0x7F;
    ep->is_in = ((epnum & 0x80) == 0x80);
 100261c:	0fd2      	lsrs	r2, r2, #31
    ep->is_stall = 1;
 100261e:	708b      	strb	r3, [r1, #2]
    ep->num   = epnum & 0x7F;
 1002620:	700c      	strb	r4, [r1, #0]
    ep->is_in = ((epnum & 0x80) == 0x80);
 1002622:	704a      	strb	r2, [r1, #1]

    USB_OTG_EPSetStall(pdev, ep);
 1002624:	f7ff fee2 	bl	10023ec <USB_OTG_EPSetStall>
    return (0);
}
 1002628:	2000      	movs	r0, #0
 100262a:	bd10      	pop	{r4, pc}
        ep = &pdev->dev.out_ep[epnum];
 100262c:	4359      	muls	r1, r3
 100262e:	31d4      	adds	r1, #212	; 0xd4
 1002630:	e7f2      	b.n	1002618 <DCD_EP_Stall+0x14>

01002632 <_delay_>:
static uint32_t DCD_HandleInEP_ISR(USB_OTG_CORE_HANDLE *pdev, uint16_t ep_intr);
static uint32_t DCD_HandleOutEP_ISR(USB_OTG_CORE_HANDLE *pdev, uint16_t ep_intr);


void _delay_(uint32_t t)
{
 1002632:	b510      	push	{r4, lr}
    ((void(*)())(0xc6 + 1))(t);
 1002634:	23c7      	movs	r3, #199	; 0xc7
 1002636:	4798      	blx	r3
}
 1002638:	bd10      	pop	{r4, pc}
	...

0100263c <USBD_OTG_ISR_Handler>:
uint8_t setup_cnt = 0;
uint8_t SetAddress_Flag = 0;
uint8_t Address_Value = 0;
extern volatile uint8_t usb_configration_flag;
uint32_t USBD_OTG_ISR_Handler(USB_OTG_CORE_HANDLE *pdev)
{
 100263c:	b5f0      	push	{r4, r5, r6, r7, lr}
    USB_OTG_IRQ2_TypeDef fifo_empty_irq;

    uint32_t retval = 0;
    USB_OTG_EP *ep;

    gintr_status.d8 = USB_OTG_READ_REG8(&(pdev ->regs.STATUSEGS ->STATUS));
 100263e:	6b43      	ldr	r3, [r0, #52]	; 0x34
{
 1002640:	b087      	sub	sp, #28
    gintr_status.d8 = USB_OTG_READ_REG8(&(pdev ->regs.STATUSEGS ->STATUS));
 1002642:	785d      	ldrb	r5, [r3, #1]
    fifo_empty_irq.d8 = USB_OTG_READ_REG8(&pdev ->regs.STATUSEGS ->EMPTY);
 1002644:	789b      	ldrb	r3, [r3, #2]
    gintr_status.d8 = USB_OTG_READ_REG8(&(pdev ->regs.STATUSEGS ->STATUS));
 1002646:	b2ed      	uxtb	r5, r5
    fifo_empty_irq.d8 = USB_OTG_READ_REG8(&pdev ->regs.STATUSEGS ->EMPTY);
 1002648:	b2db      	uxtb	r3, r3
{
 100264a:	0006      	movs	r6, r0
    fifo_empty_irq.d8 = USB_OTG_READ_REG8(&pdev ->regs.STATUSEGS ->EMPTY);
 100264c:	9302      	str	r3, [sp, #8]

    if ((!gintr_status.d8) && (!fifo_empty_irq.d8))
 100264e:	2d00      	cmp	r5, #0
 1002650:	d106      	bne.n	1002660 <USBD_OTG_ISR_Handler+0x24>
        return 0;
 1002652:	9501      	str	r5, [sp, #4]
    if ((!gintr_status.d8) && (!fifo_empty_irq.d8))
 1002654:	2b00      	cmp	r3, #0
 1002656:	d000      	beq.n	100265a <USBD_OTG_ISR_Handler+0x1e>
 1002658:	e072      	b.n	1002740 <USBD_OTG_ISR_Handler+0x104>
    {
        USB_OTG_WRITE_REG8(&pdev->regs.STATUSEGS ->EMPTY, fifo_empty_irq.d8 & 0xFF);
        retval |= DCD_HandleInEP_ISR(pdev, fifo_empty_irq.d8 & 0x0F);
    }
    return retval;
}
 100265a:	9801      	ldr	r0, [sp, #4]
 100265c:	b007      	add	sp, #28
 100265e:	bdf0      	pop	{r4, r5, r6, r7, pc}
    if (gintr_status.b.reset)
 1002660:	b26b      	sxtb	r3, r5
 1002662:	2b00      	cmp	r3, #0
 1002664:	da6c      	bge.n	1002740 <USBD_OTG_ISR_Handler+0x104>
        retval |= USBD_DCD_INT_fops->Reset(pdev);
 1002666:	4b60      	ldr	r3, [pc, #384]	; (10027e8 <USBD_OTG_ISR_Handler+0x1ac>)
 1002668:	681b      	ldr	r3, [r3, #0]
 100266a:	691b      	ldr	r3, [r3, #16]
 100266c:	4798      	blx	r3
 100266e:	9001      	str	r0, [sp, #4]
    if (gintr_status.b.suspend)
 1002670:	06ab      	lsls	r3, r5, #26
 1002672:	d507      	bpl.n	1002684 <USBD_OTG_ISR_Handler+0x48>
        retval |= USBD_DCD_INT_fops->Suspend(pdev);
 1002674:	4b5c      	ldr	r3, [pc, #368]	; (10027e8 <USBD_OTG_ISR_Handler+0x1ac>)
 1002676:	0030      	movs	r0, r6
 1002678:	681b      	ldr	r3, [r3, #0]
 100267a:	695b      	ldr	r3, [r3, #20]
 100267c:	4798      	blx	r3
 100267e:	9b01      	ldr	r3, [sp, #4]
 1002680:	4303      	orrs	r3, r0
 1002682:	9301      	str	r3, [sp, #4]
    USB_OTG_WRITE_REG8(&pdev->regs.STATUSEGS ->STATUS, 0xE0);
 1002684:	22e0      	movs	r2, #224	; 0xe0
 1002686:	240e      	movs	r4, #14
